
5_sumOf1ToN_RvO1_gcc.o:     file format elf64-littleriscv


Disassembly of section .text:

00000000000100b0 <register_fini>:
   100b0:	ffff0797          	auipc	a5,0xffff0
   100b4:	f5078793          	addi	a5,a5,-176 # 0 <register_fini-0x100b0>
   100b8:	00078863          	beqz	a5,100c8 <register_fini+0x18>
   100bc:	00000517          	auipc	a0,0x0
   100c0:	2a850513          	addi	a0,a0,680 # 10364 <__libc_fini_array>
   100c4:	2580006f          	j	1031c <atexit>
   100c8:	00008067          	ret

00000000000100cc <_start>:
   100cc:	00013197          	auipc	gp,0x13
   100d0:	93c18193          	addi	gp,gp,-1732 # 22a08 <__global_pointer$>
   100d4:	77018513          	addi	a0,gp,1904 # 23178 <_edata>
   100d8:	00013617          	auipc	a2,0x13
   100dc:	13060613          	addi	a2,a2,304 # 23208 <__BSS_END__>
   100e0:	40a60633          	sub	a2,a2,a0
   100e4:	00000593          	li	a1,0
   100e8:	36c000ef          	jal	ra,10454 <memset>
   100ec:	00000517          	auipc	a0,0x0
   100f0:	27850513          	addi	a0,a0,632 # 10364 <__libc_fini_array>
   100f4:	228000ef          	jal	ra,1031c <atexit>
   100f8:	2c8000ef          	jal	ra,103c0 <__libc_init_array>
   100fc:	00012503          	lw	a0,0(sp)
   10100:	00810593          	addi	a1,sp,8
   10104:	00000613          	li	a2,0
   10108:	07c000ef          	jal	ra,10184 <main>
   1010c:	2240006f          	j	10330 <exit>

0000000000010110 <__do_global_dtors_aux>:
   10110:	7981c783          	lbu	a5,1944(gp) # 231a0 <completed.5468>
   10114:	04079463          	bnez	a5,1015c <__do_global_dtors_aux+0x4c>
   10118:	ffff0797          	auipc	a5,0xffff0
   1011c:	ee878793          	addi	a5,a5,-280 # 0 <register_fini-0x100b0>
   10120:	02078863          	beqz	a5,10150 <__do_global_dtors_aux+0x40>
   10124:	ff010113          	addi	sp,sp,-16
   10128:	00012517          	auipc	a0,0x12
   1012c:	ed850513          	addi	a0,a0,-296 # 22000 <__FRAME_END__>
   10130:	00113423          	sd	ra,8(sp)
   10134:	00000097          	auipc	ra,0x0
   10138:	000000e7          	jalr	zero # 0 <register_fini-0x100b0>
   1013c:	00813083          	ld	ra,8(sp)
   10140:	00100793          	li	a5,1
   10144:	78f18c23          	sb	a5,1944(gp) # 231a0 <completed.5468>
   10148:	01010113          	addi	sp,sp,16
   1014c:	00008067          	ret
   10150:	00100793          	li	a5,1
   10154:	78f18c23          	sb	a5,1944(gp) # 231a0 <completed.5468>
   10158:	00008067          	ret
   1015c:	00008067          	ret

0000000000010160 <frame_dummy>:
   10160:	ffff0797          	auipc	a5,0xffff0
   10164:	ea078793          	addi	a5,a5,-352 # 0 <register_fini-0x100b0>
   10168:	00078c63          	beqz	a5,10180 <frame_dummy+0x20>
   1016c:	7a018593          	addi	a1,gp,1952 # 231a8 <object.5473>
   10170:	00012517          	auipc	a0,0x12
   10174:	e9050513          	addi	a0,a0,-368 # 22000 <__FRAME_END__>
   10178:	00000317          	auipc	t1,0x0
   1017c:	00000067          	jr	zero # 0 <register_fini-0x100b0>
   10180:	00008067          	ret

0000000000010184 <main>:
   10184:	fd010113          	addi	sp,sp,-48
   10188:	02113423          	sd	ra,40(sp)
   1018c:	02813023          	sd	s0,32(sp)
   10190:	00913c23          	sd	s1,24(sp)
   10194:	01213823          	sd	s2,16(sp)
   10198:	01313423          	sd	s3,8(sp)
   1019c:	00100413          	li	s0,1
   101a0:	00100493          	li	s1,1
   101a4:	06500913          	li	s2,101
   101a8:	000219b7          	lui	s3,0x21
   101ac:	0014079b          	addiw	a5,s0,1
   101b0:	0007841b          	sext.w	s0,a5
   101b4:	03240863          	beq	s0,s2,101e4 <main+0x60>
   101b8:	009784bb          	addw	s1,a5,s1
   101bc:	01400593          	li	a1,20
   101c0:	00040513          	mv	a0,s0
   101c4:	11c000ef          	jal	ra,102e0 <__moddi3>
   101c8:	0005051b          	sext.w	a0,a0
   101cc:	fe0510e3          	bnez	a0,101ac <main+0x28>
   101d0:	00048613          	mv	a2,s1
   101d4:	00040593          	mv	a1,s0
   101d8:	1e098513          	addi	a0,s3,480 # 211e0 <__clzdi2+0x3c>
   101dc:	398000ef          	jal	ra,10574 <printf>
   101e0:	fcdff06f          	j	101ac <main+0x28>
   101e4:	00001637          	lui	a2,0x1
   101e8:	3ba60613          	addi	a2,a2,954 # 13ba <register_fini-0xecf6>
   101ec:	06400593          	li	a1,100
   101f0:	00021537          	lui	a0,0x21
   101f4:	20850513          	addi	a0,a0,520 # 21208 <__clzdi2+0x64>
   101f8:	37c000ef          	jal	ra,10574 <printf>
   101fc:	00000513          	li	a0,0
   10200:	02813083          	ld	ra,40(sp)
   10204:	02013403          	ld	s0,32(sp)
   10208:	01813483          	ld	s1,24(sp)
   1020c:	01013903          	ld	s2,16(sp)
   10210:	00813983          	ld	s3,8(sp)
   10214:	03010113          	addi	sp,sp,48
   10218:	00008067          	ret

000000000001021c <__udivsi3>:
   1021c:	02051513          	slli	a0,a0,0x20
   10220:	02059593          	slli	a1,a1,0x20
   10224:	00008293          	mv	t0,ra
   10228:	03c000ef          	jal	ra,10264 <__udivdi3>
   1022c:	0005051b          	sext.w	a0,a0
   10230:	00028067          	jr	t0

0000000000010234 <__umodsi3>:
   10234:	02051513          	slli	a0,a0,0x20
   10238:	02059593          	slli	a1,a1,0x20
   1023c:	02055513          	srli	a0,a0,0x20
   10240:	0205d593          	srli	a1,a1,0x20
   10244:	00008293          	mv	t0,ra
   10248:	01c000ef          	jal	ra,10264 <__udivdi3>
   1024c:	0005851b          	sext.w	a0,a1
   10250:	00028067          	jr	t0

0000000000010254 <__divsi3>:
   10254:	fff00293          	li	t0,-1
   10258:	0a558c63          	beq	a1,t0,10310 <__moddi3+0x30>

000000000001025c <__divdi3>:
   1025c:	06054063          	bltz	a0,102bc <__umoddi3+0x10>
   10260:	0605c663          	bltz	a1,102cc <__umoddi3+0x20>

0000000000010264 <__udivdi3>:
   10264:	00058613          	mv	a2,a1
   10268:	00050593          	mv	a1,a0
   1026c:	fff00513          	li	a0,-1
   10270:	02060c63          	beqz	a2,102a8 <__udivdi3+0x44>
   10274:	00100693          	li	a3,1
   10278:	00b67a63          	bgeu	a2,a1,1028c <__udivdi3+0x28>
   1027c:	00c05863          	blez	a2,1028c <__udivdi3+0x28>
   10280:	00161613          	slli	a2,a2,0x1
   10284:	00169693          	slli	a3,a3,0x1
   10288:	feb66ae3          	bltu	a2,a1,1027c <__udivdi3+0x18>
   1028c:	00000513          	li	a0,0
   10290:	00c5e663          	bltu	a1,a2,1029c <__udivdi3+0x38>
   10294:	40c585b3          	sub	a1,a1,a2
   10298:	00d56533          	or	a0,a0,a3
   1029c:	0016d693          	srli	a3,a3,0x1
   102a0:	00165613          	srli	a2,a2,0x1
   102a4:	fe0696e3          	bnez	a3,10290 <__udivdi3+0x2c>
   102a8:	00008067          	ret

00000000000102ac <__umoddi3>:
   102ac:	00008293          	mv	t0,ra
   102b0:	fb5ff0ef          	jal	ra,10264 <__udivdi3>
   102b4:	00058513          	mv	a0,a1
   102b8:	00028067          	jr	t0
   102bc:	40a00533          	neg	a0,a0
   102c0:	0005d863          	bgez	a1,102d0 <__umoddi3+0x24>
   102c4:	40b005b3          	neg	a1,a1
   102c8:	f9dff06f          	j	10264 <__udivdi3>
   102cc:	40b005b3          	neg	a1,a1
   102d0:	00008293          	mv	t0,ra
   102d4:	f91ff0ef          	jal	ra,10264 <__udivdi3>
   102d8:	40a00533          	neg	a0,a0
   102dc:	00028067          	jr	t0

00000000000102e0 <__moddi3>:
   102e0:	00008293          	mv	t0,ra
   102e4:	0005ca63          	bltz	a1,102f8 <__moddi3+0x18>
   102e8:	00054c63          	bltz	a0,10300 <__moddi3+0x20>
   102ec:	f79ff0ef          	jal	ra,10264 <__udivdi3>
   102f0:	00058513          	mv	a0,a1
   102f4:	00028067          	jr	t0
   102f8:	40b005b3          	neg	a1,a1
   102fc:	fe0558e3          	bgez	a0,102ec <__moddi3+0xc>
   10300:	40a00533          	neg	a0,a0
   10304:	f61ff0ef          	jal	ra,10264 <__udivdi3>
   10308:	40b00533          	neg	a0,a1
   1030c:	00028067          	jr	t0
   10310:	01f29293          	slli	t0,t0,0x1f
   10314:	f45514e3          	bne	a0,t0,1025c <__divdi3>
   10318:	00008067          	ret

000000000001031c <atexit>:
   1031c:	00050593          	mv	a1,a0
   10320:	00000693          	li	a3,0
   10324:	00000613          	li	a2,0
   10328:	00000513          	li	a0,0
   1032c:	4390206f          	j	12f64 <__register_exitproc>

0000000000010330 <exit>:
   10330:	ff010113          	addi	sp,sp,-16
   10334:	00000593          	li	a1,0
   10338:	00813023          	sd	s0,0(sp)
   1033c:	00113423          	sd	ra,8(sp)
   10340:	00050413          	mv	s0,a0
   10344:	4cd020ef          	jal	ra,13010 <__call_exitprocs>
   10348:	74818793          	addi	a5,gp,1864 # 23150 <_global_impure_ptr>
   1034c:	0007b503          	ld	a0,0(a5)
   10350:	05853783          	ld	a5,88(a0)
   10354:	00078463          	beqz	a5,1035c <exit+0x2c>
   10358:	000780e7          	jalr	a5
   1035c:	00040513          	mv	a0,s0
   10360:	7410e0ef          	jal	ra,1f2a0 <_exit>

0000000000010364 <__libc_fini_array>:
   10364:	fe010113          	addi	sp,sp,-32
   10368:	00813823          	sd	s0,16(sp)
   1036c:	00012797          	auipc	a5,0x12
   10370:	cb478793          	addi	a5,a5,-844 # 22020 <__fini_array_end>
   10374:	00012417          	auipc	s0,0x12
   10378:	ca440413          	addi	s0,s0,-860 # 22018 <__init_array_end>
   1037c:	408787b3          	sub	a5,a5,s0
   10380:	00913423          	sd	s1,8(sp)
   10384:	00113c23          	sd	ra,24(sp)
   10388:	4037d493          	srai	s1,a5,0x3
   1038c:	02048063          	beqz	s1,103ac <__libc_fini_array+0x48>
   10390:	ff878793          	addi	a5,a5,-8
   10394:	00878433          	add	s0,a5,s0
   10398:	00043783          	ld	a5,0(s0)
   1039c:	fff48493          	addi	s1,s1,-1
   103a0:	ff840413          	addi	s0,s0,-8
   103a4:	000780e7          	jalr	a5
   103a8:	fe0498e3          	bnez	s1,10398 <__libc_fini_array+0x34>
   103ac:	01813083          	ld	ra,24(sp)
   103b0:	01013403          	ld	s0,16(sp)
   103b4:	00813483          	ld	s1,8(sp)
   103b8:	02010113          	addi	sp,sp,32
   103bc:	00008067          	ret

00000000000103c0 <__libc_init_array>:
   103c0:	fe010113          	addi	sp,sp,-32
   103c4:	00813823          	sd	s0,16(sp)
   103c8:	01213023          	sd	s2,0(sp)
   103cc:	00012417          	auipc	s0,0x12
   103d0:	c3840413          	addi	s0,s0,-968 # 22004 <__preinit_array_end>
   103d4:	00012917          	auipc	s2,0x12
   103d8:	c3090913          	addi	s2,s2,-976 # 22004 <__preinit_array_end>
   103dc:	40890933          	sub	s2,s2,s0
   103e0:	00113c23          	sd	ra,24(sp)
   103e4:	00913423          	sd	s1,8(sp)
   103e8:	40395913          	srai	s2,s2,0x3
   103ec:	00090e63          	beqz	s2,10408 <__libc_init_array+0x48>
   103f0:	00000493          	li	s1,0
   103f4:	00043783          	ld	a5,0(s0)
   103f8:	00148493          	addi	s1,s1,1
   103fc:	00840413          	addi	s0,s0,8
   10400:	000780e7          	jalr	a5
   10404:	fe9918e3          	bne	s2,s1,103f4 <__libc_init_array+0x34>
   10408:	00012417          	auipc	s0,0x12
   1040c:	c0040413          	addi	s0,s0,-1024 # 22008 <__init_array_start>
   10410:	00012917          	auipc	s2,0x12
   10414:	c0890913          	addi	s2,s2,-1016 # 22018 <__init_array_end>
   10418:	40890933          	sub	s2,s2,s0
   1041c:	40395913          	srai	s2,s2,0x3
   10420:	00090e63          	beqz	s2,1043c <__libc_init_array+0x7c>
   10424:	00000493          	li	s1,0
   10428:	00043783          	ld	a5,0(s0)
   1042c:	00148493          	addi	s1,s1,1
   10430:	00840413          	addi	s0,s0,8
   10434:	000780e7          	jalr	a5
   10438:	fe9918e3          	bne	s2,s1,10428 <__libc_init_array+0x68>
   1043c:	01813083          	ld	ra,24(sp)
   10440:	01013403          	ld	s0,16(sp)
   10444:	00813483          	ld	s1,8(sp)
   10448:	00013903          	ld	s2,0(sp)
   1044c:	02010113          	addi	sp,sp,32
   10450:	00008067          	ret

0000000000010454 <memset>:
   10454:	00f00313          	li	t1,15
   10458:	00050713          	mv	a4,a0
   1045c:	02c37a63          	bgeu	t1,a2,10490 <memset+0x3c>
   10460:	00f77793          	andi	a5,a4,15
   10464:	0a079063          	bnez	a5,10504 <memset+0xb0>
   10468:	06059e63          	bnez	a1,104e4 <memset+0x90>
   1046c:	ff067693          	andi	a3,a2,-16
   10470:	00f67613          	andi	a2,a2,15
   10474:	00e686b3          	add	a3,a3,a4
   10478:	00b73023          	sd	a1,0(a4)
   1047c:	00b73423          	sd	a1,8(a4)
   10480:	01070713          	addi	a4,a4,16
   10484:	fed76ae3          	bltu	a4,a3,10478 <memset+0x24>
   10488:	00061463          	bnez	a2,10490 <memset+0x3c>
   1048c:	00008067          	ret
   10490:	40c306b3          	sub	a3,t1,a2
   10494:	00269693          	slli	a3,a3,0x2
   10498:	00000297          	auipc	t0,0x0
   1049c:	005686b3          	add	a3,a3,t0
   104a0:	00c68067          	jr	12(a3)
   104a4:	00b70723          	sb	a1,14(a4)
   104a8:	00b706a3          	sb	a1,13(a4)
   104ac:	00b70623          	sb	a1,12(a4)
   104b0:	00b705a3          	sb	a1,11(a4)
   104b4:	00b70523          	sb	a1,10(a4)
   104b8:	00b704a3          	sb	a1,9(a4)
   104bc:	00b70423          	sb	a1,8(a4)
   104c0:	00b703a3          	sb	a1,7(a4)
   104c4:	00b70323          	sb	a1,6(a4)
   104c8:	00b702a3          	sb	a1,5(a4)
   104cc:	00b70223          	sb	a1,4(a4)
   104d0:	00b701a3          	sb	a1,3(a4)
   104d4:	00b70123          	sb	a1,2(a4)
   104d8:	00b700a3          	sb	a1,1(a4)
   104dc:	00b70023          	sb	a1,0(a4)
   104e0:	00008067          	ret
   104e4:	0ff5f593          	andi	a1,a1,255
   104e8:	00859693          	slli	a3,a1,0x8
   104ec:	00d5e5b3          	or	a1,a1,a3
   104f0:	01059693          	slli	a3,a1,0x10
   104f4:	00d5e5b3          	or	a1,a1,a3
   104f8:	02059693          	slli	a3,a1,0x20
   104fc:	00d5e5b3          	or	a1,a1,a3
   10500:	f6dff06f          	j	1046c <memset+0x18>
   10504:	00279693          	slli	a3,a5,0x2
   10508:	00000297          	auipc	t0,0x0
   1050c:	005686b3          	add	a3,a3,t0
   10510:	00008293          	mv	t0,ra
   10514:	f98680e7          	jalr	-104(a3)
   10518:	00028093          	mv	ra,t0
   1051c:	ff078793          	addi	a5,a5,-16
   10520:	40f70733          	sub	a4,a4,a5
   10524:	00f60633          	add	a2,a2,a5
   10528:	f6c374e3          	bgeu	t1,a2,10490 <memset+0x3c>
   1052c:	f3dff06f          	j	10468 <memset+0x14>

0000000000010530 <_printf_r>:
   10530:	fb010113          	addi	sp,sp,-80
   10534:	02c13023          	sd	a2,32(sp)
   10538:	02d13423          	sd	a3,40(sp)
   1053c:	02f13c23          	sd	a5,56(sp)
   10540:	02e13823          	sd	a4,48(sp)
   10544:	05013023          	sd	a6,64(sp)
   10548:	05113423          	sd	a7,72(sp)
   1054c:	00058613          	mv	a2,a1
   10550:	01053583          	ld	a1,16(a0)
   10554:	02010793          	addi	a5,sp,32
   10558:	00078693          	mv	a3,a5
   1055c:	00113c23          	sd	ra,24(sp)
   10560:	00f13423          	sd	a5,8(sp)
   10564:	064000ef          	jal	ra,105c8 <_vfprintf_r>
   10568:	01813083          	ld	ra,24(sp)
   1056c:	05010113          	addi	sp,sp,80
   10570:	00008067          	ret

0000000000010574 <printf>:
   10574:	75818313          	addi	t1,gp,1880 # 23160 <_impure_ptr>
   10578:	00033303          	ld	t1,0(t1) # 10178 <frame_dummy+0x18>
   1057c:	fa010113          	addi	sp,sp,-96
   10580:	02c13823          	sd	a2,48(sp)
   10584:	02d13c23          	sd	a3,56(sp)
   10588:	04f13423          	sd	a5,72(sp)
   1058c:	02b13423          	sd	a1,40(sp)
   10590:	04e13023          	sd	a4,64(sp)
   10594:	05013823          	sd	a6,80(sp)
   10598:	05113c23          	sd	a7,88(sp)
   1059c:	01033583          	ld	a1,16(t1)
   105a0:	02810793          	addi	a5,sp,40
   105a4:	00050613          	mv	a2,a0
   105a8:	00078693          	mv	a3,a5
   105ac:	00030513          	mv	a0,t1
   105b0:	00113c23          	sd	ra,24(sp)
   105b4:	00f13423          	sd	a5,8(sp)
   105b8:	010000ef          	jal	ra,105c8 <_vfprintf_r>
   105bc:	01813083          	ld	ra,24(sp)
   105c0:	06010113          	addi	sp,sp,96
   105c4:	00008067          	ret

00000000000105c8 <_vfprintf_r>:
   105c8:	d8010113          	addi	sp,sp,-640
   105cc:	26113c23          	sd	ra,632(sp)
   105d0:	26813823          	sd	s0,624(sp)
   105d4:	25613023          	sd	s6,576(sp)
   105d8:	00b13023          	sd	a1,0(sp)
   105dc:	00060b13          	mv	s6,a2
   105e0:	00d13823          	sd	a3,16(sp)
   105e4:	26913423          	sd	s1,616(sp)
   105e8:	27213023          	sd	s2,608(sp)
   105ec:	25313c23          	sd	s3,600(sp)
   105f0:	25413823          	sd	s4,592(sp)
   105f4:	25513423          	sd	s5,584(sp)
   105f8:	23713c23          	sd	s7,568(sp)
   105fc:	23813823          	sd	s8,560(sp)
   10600:	23913423          	sd	s9,552(sp)
   10604:	23a13023          	sd	s10,544(sp)
   10608:	21b13c23          	sd	s11,536(sp)
   1060c:	00050413          	mv	s0,a0
   10610:	02a13823          	sd	a0,48(sp)
   10614:	364060ef          	jal	ra,16978 <_localeconv_r>
   10618:	00053783          	ld	a5,0(a0)
   1061c:	00078513          	mv	a0,a5
   10620:	04f13c23          	sd	a5,88(sp)
   10624:	68c080ef          	jal	ra,18cb0 <strlen>
   10628:	04a13423          	sd	a0,72(sp)
   1062c:	10013023          	sd	zero,256(sp)
   10630:	10013423          	sd	zero,264(sp)
   10634:	00040663          	beqz	s0,10640 <_vfprintf_r+0x78>
   10638:	05042783          	lw	a5,80(s0)
   1063c:	54078ee3          	beqz	a5,11398 <_vfprintf_r+0xdd0>
   10640:	00013703          	ld	a4,0(sp)
   10644:	01071683          	lh	a3,16(a4)
   10648:	03069793          	slli	a5,a3,0x30
   1064c:	0307d793          	srli	a5,a5,0x30
   10650:	03279613          	slli	a2,a5,0x32
   10654:	02064663          	bltz	a2,10680 <_vfprintf_r+0xb8>
   10658:	0ac72603          	lw	a2,172(a4)
   1065c:	000027b7          	lui	a5,0x2
   10660:	00f6e7b3          	or	a5,a3,a5
   10664:	ffffe6b7          	lui	a3,0xffffe
   10668:	fff68693          	addi	a3,a3,-1 # ffffffffffffdfff <__BSS_END__+0xfffffffffffdadf7>
   1066c:	00d676b3          	and	a3,a2,a3
   10670:	00f71823          	sh	a5,16(a4)
   10674:	03079793          	slli	a5,a5,0x30
   10678:	0ad72623          	sw	a3,172(a4)
   1067c:	0307d793          	srli	a5,a5,0x30
   10680:	0087f693          	andi	a3,a5,8
   10684:	14068463          	beqz	a3,107cc <_vfprintf_r+0x204>
   10688:	00013703          	ld	a4,0(sp)
   1068c:	01873683          	ld	a3,24(a4)
   10690:	12068e63          	beqz	a3,107cc <_vfprintf_r+0x204>
   10694:	01a7f793          	andi	a5,a5,26
   10698:	00a00693          	li	a3,10
   1069c:	14d78c63          	beq	a5,a3,107f4 <_vfprintf_r+0x22c>
   106a0:	19010793          	addi	a5,sp,400
   106a4:	000b0d93          	mv	s11,s6
   106a8:	10f13823          	sd	a5,272(sp)
   106ac:	00078313          	mv	t1,a5
   106b0:	000dc783          	lbu	a5,0(s11)
   106b4:	12013023          	sd	zero,288(sp)
   106b8:	10012c23          	sw	zero,280(sp)
   106bc:	02013423          	sd	zero,40(sp)
   106c0:	04013823          	sd	zero,80(sp)
   106c4:	06013423          	sd	zero,104(sp)
   106c8:	06013c23          	sd	zero,120(sp)
   106cc:	08013423          	sd	zero,136(sp)
   106d0:	06013823          	sd	zero,112(sp)
   106d4:	00013423          	sd	zero,8(sp)
   106d8:	01000d13          	li	s10,16
   106dc:	00011c17          	auipc	s8,0x11
   106e0:	cc4c0c13          	addi	s8,s8,-828 # 213a0 <zeroes.4539>
   106e4:	03013a83          	ld	s5,48(sp)
   106e8:	1e078ce3          	beqz	a5,110e0 <_vfprintf_r+0xb18>
   106ec:	02500693          	li	a3,37
   106f0:	00d79463          	bne	a5,a3,106f8 <_vfprintf_r+0x130>
   106f4:	6e80106f          	j	11ddc <_vfprintf_r+0x1814>
   106f8:	000d8413          	mv	s0,s11
   106fc:	00c0006f          	j	10708 <_vfprintf_r+0x140>
   10700:	10d78e63          	beq	a5,a3,1081c <_vfprintf_r+0x254>
   10704:	00048413          	mv	s0,s1
   10708:	00144783          	lbu	a5,1(s0)
   1070c:	00140493          	addi	s1,s0,1
   10710:	fe0798e3          	bnez	a5,10700 <_vfprintf_r+0x138>
   10714:	41b4893b          	subw	s2,s1,s11
   10718:	1c0904e3          	beqz	s2,110e0 <_vfprintf_r+0xb18>
   1071c:	12013683          	ld	a3,288(sp)
   10720:	11812783          	lw	a5,280(sp)
   10724:	01b33023          	sd	s11,0(t1)
   10728:	012686b3          	add	a3,a3,s2
   1072c:	0017879b          	addiw	a5,a5,1
   10730:	01233423          	sd	s2,8(t1)
   10734:	12d13023          	sd	a3,288(sp)
   10738:	10f12c23          	sw	a5,280(sp)
   1073c:	0007869b          	sext.w	a3,a5
   10740:	00700793          	li	a5,7
   10744:	01030313          	addi	t1,t1,16
   10748:	0ed7c063          	blt	a5,a3,10828 <_vfprintf_r+0x260>
   1074c:	00813703          	ld	a4,8(sp)
   10750:	00144783          	lbu	a5,1(s0)
   10754:	00e9073b          	addw	a4,s2,a4
   10758:	00e13423          	sd	a4,8(sp)
   1075c:	180782e3          	beqz	a5,110e0 <_vfprintf_r+0xb18>
   10760:	00148913          	addi	s2,s1,1
   10764:	0014c403          	lbu	s0,1(s1)
   10768:	0c010fa3          	sb	zero,223(sp)
   1076c:	fff00b93          	li	s7,-1
   10770:	00000993          	li	s3,0
   10774:	00000493          	li	s1,0
   10778:	00900a13          	li	s4,9
   1077c:	02a00b13          	li	s6,42
   10780:	00030c93          	mv	s9,t1
   10784:	00190913          	addi	s2,s2,1
   10788:	0004041b          	sext.w	s0,s0
   1078c:	05a00693          	li	a3,90
   10790:	fe04079b          	addiw	a5,s0,-32
   10794:	0007871b          	sext.w	a4,a5
   10798:	20e6ea63          	bltu	a3,a4,109ac <_vfprintf_r+0x3e4>
   1079c:	02079793          	slli	a5,a5,0x20
   107a0:	00011717          	auipc	a4,0x11
   107a4:	a8070713          	addi	a4,a4,-1408 # 21220 <__clzdi2+0x7c>
   107a8:	01e7d793          	srli	a5,a5,0x1e
   107ac:	00e787b3          	add	a5,a5,a4
   107b0:	0007a783          	lw	a5,0(a5) # 2000 <register_fini-0xe0b0>
   107b4:	00e787b3          	add	a5,a5,a4
   107b8:	00078067          	jr	a5
   107bc:	0104e493          	ori	s1,s1,16
   107c0:	0004849b          	sext.w	s1,s1
   107c4:	00094403          	lbu	s0,0(s2)
   107c8:	fbdff06f          	j	10784 <_vfprintf_r+0x1bc>
   107cc:	00013583          	ld	a1,0(sp)
   107d0:	03013503          	ld	a0,48(sp)
   107d4:	628020ef          	jal	ra,12dfc <__swsetup_r>
   107d8:	00050463          	beqz	a0,107e0 <_vfprintf_r+0x218>
   107dc:	1b40206f          	j	12990 <_vfprintf_r+0x23c8>
   107e0:	00013783          	ld	a5,0(sp)
   107e4:	00a00693          	li	a3,10
   107e8:	0107d783          	lhu	a5,16(a5)
   107ec:	01a7f793          	andi	a5,a5,26
   107f0:	ead798e3          	bne	a5,a3,106a0 <_vfprintf_r+0xd8>
   107f4:	00013783          	ld	a5,0(sp)
   107f8:	01279783          	lh	a5,18(a5)
   107fc:	ea07c2e3          	bltz	a5,106a0 <_vfprintf_r+0xd8>
   10800:	01013683          	ld	a3,16(sp)
   10804:	00013583          	ld	a1,0(sp)
   10808:	03013503          	ld	a0,48(sp)
   1080c:	000b0613          	mv	a2,s6
   10810:	52c020ef          	jal	ra,12d3c <__sbprintf>
   10814:	00a13423          	sd	a0,8(sp)
   10818:	0680006f          	j	10880 <_vfprintf_r+0x2b8>
   1081c:	41b4893b          	subw	s2,s1,s11
   10820:	f40900e3          	beqz	s2,10760 <_vfprintf_r+0x198>
   10824:	ef9ff06f          	j	1071c <_vfprintf_r+0x154>
   10828:	00013583          	ld	a1,0(sp)
   1082c:	11010613          	addi	a2,sp,272
   10830:	000a8513          	mv	a0,s5
   10834:	62d0a0ef          	jal	ra,1b660 <__sprint_r>
   10838:	02051a63          	bnez	a0,1086c <_vfprintf_r+0x2a4>
   1083c:	19010313          	addi	t1,sp,400
   10840:	f0dff06f          	j	1074c <_vfprintf_r+0x184>
   10844:	00013583          	ld	a1,0(sp)
   10848:	11010613          	addi	a2,sp,272
   1084c:	000a8513          	mv	a0,s5
   10850:	6110a0ef          	jal	ra,1b660 <__sprint_r>
   10854:	060502e3          	beqz	a0,110b8 <_vfprintf_r+0xaf0>
   10858:	01813783          	ld	a5,24(sp)
   1085c:	00078863          	beqz	a5,1086c <_vfprintf_r+0x2a4>
   10860:	03013503          	ld	a0,48(sp)
   10864:	00078593          	mv	a1,a5
   10868:	050030ef          	jal	ra,138b8 <_free_r>
   1086c:	00013783          	ld	a5,0(sp)
   10870:	0107d783          	lhu	a5,16(a5)
   10874:	0407f793          	andi	a5,a5,64
   10878:	00078463          	beqz	a5,10880 <_vfprintf_r+0x2b8>
   1087c:	1140206f          	j	12990 <_vfprintf_r+0x23c8>
   10880:	27813083          	ld	ra,632(sp)
   10884:	27013403          	ld	s0,624(sp)
   10888:	00813503          	ld	a0,8(sp)
   1088c:	26813483          	ld	s1,616(sp)
   10890:	26013903          	ld	s2,608(sp)
   10894:	25813983          	ld	s3,600(sp)
   10898:	25013a03          	ld	s4,592(sp)
   1089c:	24813a83          	ld	s5,584(sp)
   108a0:	24013b03          	ld	s6,576(sp)
   108a4:	23813b83          	ld	s7,568(sp)
   108a8:	23013c03          	ld	s8,560(sp)
   108ac:	22813c83          	ld	s9,552(sp)
   108b0:	22013d03          	ld	s10,544(sp)
   108b4:	21813d83          	ld	s11,536(sp)
   108b8:	28010113          	addi	sp,sp,640
   108bc:	00008067          	ret
   108c0:	01013683          	ld	a3,16(sp)
   108c4:	00011797          	auipc	a5,0x11
   108c8:	b3c78793          	addi	a5,a5,-1220 # 21400 <zeroes.4539+0x60>
   108cc:	04f13823          	sd	a5,80(sp)
   108d0:	0204f793          	andi	a5,s1,32
   108d4:	000c8313          	mv	t1,s9
   108d8:	00868713          	addi	a4,a3,8
   108dc:	10078863          	beqz	a5,109ec <_vfprintf_r+0x424>
   108e0:	0006bb03          	ld	s6,0(a3)
   108e4:	0014f793          	andi	a5,s1,1
   108e8:	00078e63          	beqz	a5,10904 <_vfprintf_r+0x33c>
   108ec:	000b0c63          	beqz	s6,10904 <_vfprintf_r+0x33c>
   108f0:	0024e493          	ori	s1,s1,2
   108f4:	03000793          	li	a5,48
   108f8:	0ef10023          	sb	a5,224(sp)
   108fc:	0e8100a3          	sb	s0,225(sp)
   10900:	0004849b          	sext.w	s1,s1
   10904:	bff4f813          	andi	a6,s1,-1025
   10908:	00080a1b          	sext.w	s4,a6
   1090c:	00e13823          	sd	a4,16(sp)
   10910:	00200793          	li	a5,2
   10914:	0c010fa3          	sb	zero,223(sp)
   10918:	fff00713          	li	a4,-1
   1091c:	5eeb8e63          	beq	s7,a4,10f18 <_vfprintf_r+0x950>
   10920:	f7fa7493          	andi	s1,s4,-129
   10924:	0004849b          	sext.w	s1,s1
   10928:	6c0b16e3          	bnez	s6,117f4 <_vfprintf_r+0x122c>
   1092c:	000b8463          	beqz	s7,10934 <_vfprintf_r+0x36c>
   10930:	0bc0106f          	j	119ec <_vfprintf_r+0x1424>
   10934:	52079663          	bnez	a5,10e60 <_vfprintf_r+0x898>
   10938:	001a7c93          	andi	s9,s4,1
   1093c:	18c10d93          	addi	s11,sp,396
   10940:	000c8463          	beqz	s9,10948 <_vfprintf_r+0x380>
   10944:	2f40106f          	j	11c38 <_vfprintf_r+0x1670>
   10948:	000c8a1b          	sext.w	s4,s9
   1094c:	017cd463          	bge	s9,s7,10954 <_vfprintf_r+0x38c>
   10950:	000b8a1b          	sext.w	s4,s7
   10954:	0df14783          	lbu	a5,223(sp)
   10958:	00013c23          	sd	zero,24(sp)
   1095c:	04013023          	sd	zero,64(sp)
   10960:	02013c23          	sd	zero,56(sp)
   10964:	02013023          	sd	zero,32(sp)
   10968:	64078663          	beqz	a5,10fb4 <_vfprintf_r+0x9ec>
   1096c:	001a0a1b          	addiw	s4,s4,1
   10970:	6440006f          	j	10fb4 <_vfprintf_r+0x9ec>
   10974:	00000993          	li	s3,0
   10978:	00190913          	addi	s2,s2,1
   1097c:	fff94703          	lbu	a4,-1(s2)
   10980:	0029979b          	slliw	a5,s3,0x2
   10984:	013787bb          	addw	a5,a5,s3
   10988:	fd04041b          	addiw	s0,s0,-48
   1098c:	0017979b          	slliw	a5,a5,0x1
   10990:	fd07061b          	addiw	a2,a4,-48
   10994:	00f409bb          	addw	s3,s0,a5
   10998:	0007041b          	sext.w	s0,a4
   1099c:	fcca7ee3          	bgeu	s4,a2,10978 <_vfprintf_r+0x3b0>
   109a0:	fe04079b          	addiw	a5,s0,-32
   109a4:	0007871b          	sext.w	a4,a5
   109a8:	dee6fae3          	bgeu	a3,a4,1079c <_vfprintf_r+0x1d4>
   109ac:	000c8313          	mv	t1,s9
   109b0:	72040863          	beqz	s0,110e0 <_vfprintf_r+0xb18>
   109b4:	12810423          	sb	s0,296(sp)
   109b8:	0c010fa3          	sb	zero,223(sp)
   109bc:	00100a13          	li	s4,1
   109c0:	00100c93          	li	s9,1
   109c4:	12810d93          	addi	s11,sp,296
   109c8:	5d80006f          	j	10fa0 <_vfprintf_r+0x9d8>
   109cc:	01013683          	ld	a3,16(sp)
   109d0:	00011797          	auipc	a5,0x11
   109d4:	a4878793          	addi	a5,a5,-1464 # 21418 <zeroes.4539+0x78>
   109d8:	04f13823          	sd	a5,80(sp)
   109dc:	0204f793          	andi	a5,s1,32
   109e0:	000c8313          	mv	t1,s9
   109e4:	00868713          	addi	a4,a3,8
   109e8:	ee079ce3          	bnez	a5,108e0 <_vfprintf_r+0x318>
   109ec:	0104f793          	andi	a5,s1,16
   109f0:	00078463          	beqz	a5,109f8 <_vfprintf_r+0x430>
   109f4:	26c0106f          	j	11c60 <_vfprintf_r+0x1698>
   109f8:	01013683          	ld	a3,16(sp)
   109fc:	0404f793          	andi	a5,s1,64
   10a00:	0006ab03          	lw	s6,0(a3)
   10a04:	00079463          	bnez	a5,10a0c <_vfprintf_r+0x444>
   10a08:	66c0106f          	j	12074 <_vfprintf_r+0x1aac>
   10a0c:	030b1b13          	slli	s6,s6,0x30
   10a10:	030b5b13          	srli	s6,s6,0x30
   10a14:	ed1ff06f          	j	108e4 <_vfprintf_r+0x31c>
   10a18:	00094403          	lbu	s0,0(s2)
   10a1c:	0044e493          	ori	s1,s1,4
   10a20:	0004849b          	sext.w	s1,s1
   10a24:	d61ff06f          	j	10784 <_vfprintf_r+0x1bc>
   10a28:	00094403          	lbu	s0,0(s2)
   10a2c:	06800793          	li	a5,104
   10a30:	00f41463          	bne	s0,a5,10a38 <_vfprintf_r+0x470>
   10a34:	2e40106f          	j	11d18 <_vfprintf_r+0x1750>
   10a38:	0404e493          	ori	s1,s1,64
   10a3c:	0004849b          	sext.w	s1,s1
   10a40:	d45ff06f          	j	10784 <_vfprintf_r+0x1bc>
   10a44:	0084f793          	andi	a5,s1,8
   10a48:	000c8313          	mv	t1,s9
   10a4c:	00079463          	bnez	a5,10a54 <_vfprintf_r+0x48c>
   10a50:	22c0106f          	j	11c7c <_vfprintf_r+0x16b4>
   10a54:	01013783          	ld	a5,16(sp)
   10a58:	00f78793          	addi	a5,a5,15
   10a5c:	ff07f793          	andi	a5,a5,-16
   10a60:	0007b683          	ld	a3,0(a5)
   10a64:	0087b703          	ld	a4,8(a5)
   10a68:	01078793          	addi	a5,a5,16
   10a6c:	00f13823          	sd	a5,16(sp)
   10a70:	10d13023          	sd	a3,256(sp)
   10a74:	10e13423          	sd	a4,264(sp)
   10a78:	10010513          	addi	a0,sp,256
   10a7c:	00613c23          	sd	t1,24(sp)
   10a80:	69d050ef          	jal	ra,1691c <_ldcheck>
   10a84:	0ea12423          	sw	a0,232(sp)
   10a88:	00200793          	li	a5,2
   10a8c:	01813303          	ld	t1,24(sp)
   10a90:	00f51463          	bne	a0,a5,10a98 <_vfprintf_r+0x4d0>
   10a94:	4e40106f          	j	11f78 <_vfprintf_r+0x19b0>
   10a98:	00100793          	li	a5,1
   10a9c:	00f51463          	bne	a0,a5,10aa4 <_vfprintf_r+0x4dc>
   10aa0:	5e40106f          	j	12084 <_vfprintf_r+0x1abc>
   10aa4:	06100793          	li	a5,97
   10aa8:	00f41463          	bne	s0,a5,10ab0 <_vfprintf_r+0x4e8>
   10aac:	7fd0106f          	j	12aa8 <_vfprintf_r+0x24e0>
   10ab0:	04100793          	li	a5,65
   10ab4:	00f41463          	bne	s0,a5,10abc <_vfprintf_r+0x4f4>
   10ab8:	12d0106f          	j	123e4 <_vfprintf_r+0x1e1c>
   10abc:	fdf47713          	andi	a4,s0,-33
   10ac0:	fff00793          	li	a5,-1
   10ac4:	02e13c23          	sd	a4,56(sp)
   10ac8:	00fb9463          	bne	s7,a5,10ad0 <_vfprintf_r+0x508>
   10acc:	7fd0106f          	j	12ac8 <_vfprintf_r+0x2500>
   10ad0:	04700793          	li	a5,71
   10ad4:	00f71463          	bne	a4,a5,10adc <_vfprintf_r+0x514>
   10ad8:	7e10106f          	j	12ab8 <_vfprintf_r+0x24f0>
   10adc:	10813c83          	ld	s9,264(sp)
   10ae0:	1004e793          	ori	a5,s1,256
   10ae4:	04913023          	sd	s1,64(sp)
   10ae8:	0007879b          	sext.w	a5,a5
   10aec:	10013e83          	ld	t4,256(sp)
   10af0:	000cd463          	bgez	s9,10af8 <_vfprintf_r+0x530>
   10af4:	4c10106f          	j	127b4 <_vfprintf_r+0x21ec>
   10af8:	06013023          	sd	zero,96(sp)
   10afc:	00078493          	mv	s1,a5
   10b00:	00013c23          	sd	zero,24(sp)
   10b04:	03813703          	ld	a4,56(sp)
   10b08:	04600793          	li	a5,70
   10b0c:	00f71463          	bne	a4,a5,10b14 <_vfprintf_r+0x54c>
   10b10:	4050106f          	j	12714 <_vfprintf_r+0x214c>
   10b14:	04500793          	li	a5,69
   10b18:	02613423          	sd	t1,40(sp)
   10b1c:	00f71463          	bne	a4,a5,10b24 <_vfprintf_r+0x55c>
   10b20:	7250106f          	j	12a44 <_vfprintf_r+0x247c>
   10b24:	0e810793          	addi	a5,sp,232
   10b28:	000b8713          	mv	a4,s7
   10b2c:	000e8593          	mv	a1,t4
   10b30:	0f810893          	addi	a7,sp,248
   10b34:	0ec10813          	addi	a6,sp,236
   10b38:	00200693          	li	a3,2
   10b3c:	000c8613          	mv	a2,s9
   10b40:	000a8513          	mv	a0,s5
   10b44:	03d13023          	sd	t4,32(sp)
   10b48:	2b5040ef          	jal	ra,155fc <_ldtoa_r>
   10b4c:	03813703          	ld	a4,56(sp)
   10b50:	04700793          	li	a5,71
   10b54:	00050d93          	mv	s11,a0
   10b58:	02013e83          	ld	t4,32(sp)
   10b5c:	02813303          	ld	t1,40(sp)
   10b60:	00f70463          	beq	a4,a5,10b68 <_vfprintf_r+0x5a0>
   10b64:	1a80206f          	j	12d0c <_vfprintf_r+0x2744>
   10b68:	04013783          	ld	a5,64(sp)
   10b6c:	01750a33          	add	s4,a0,s7
   10b70:	0017f793          	andi	a5,a5,1
   10b74:	00078463          	beqz	a5,10b7c <_vfprintf_r+0x5b4>
   10b78:	3ed0106f          	j	12764 <_vfprintf_r+0x219c>
   10b7c:	0f813783          	ld	a5,248(sp)
   10b80:	41b787bb          	subw	a5,a5,s11
   10b84:	02f13423          	sd	a5,40(sp)
   10b88:	0e812703          	lw	a4,232(sp)
   10b8c:	04700793          	li	a5,71
   10b90:	02e13023          	sd	a4,32(sp)
   10b94:	03813703          	ld	a4,56(sp)
   10b98:	00f71463          	bne	a4,a5,10ba0 <_vfprintf_r+0x5d8>
   10b9c:	2ed0106f          	j	12688 <_vfprintf_r+0x20c0>
   10ba0:	03813703          	ld	a4,56(sp)
   10ba4:	04600793          	li	a5,70
   10ba8:	00f71463          	bne	a4,a5,10bb0 <_vfprintf_r+0x5e8>
   10bac:	5550106f          	j	12900 <_vfprintf_r+0x2338>
   10bb0:	02013783          	ld	a5,32(sp)
   10bb4:	03813703          	ld	a4,56(sp)
   10bb8:	04100613          	li	a2,65
   10bbc:	fff78a1b          	addiw	s4,a5,-1
   10bc0:	0f412423          	sw	s4,232(sp)
   10bc4:	0ff47793          	andi	a5,s0,255
   10bc8:	00000693          	li	a3,0
   10bcc:	00c71863          	bne	a4,a2,10bdc <_vfprintf_r+0x614>
   10bd0:	00f7879b          	addiw	a5,a5,15
   10bd4:	0ff7f793          	andi	a5,a5,255
   10bd8:	00100693          	li	a3,1
   10bdc:	0ef10823          	sb	a5,240(sp)
   10be0:	02b00793          	li	a5,43
   10be4:	000a5a63          	bgez	s4,10bf8 <_vfprintf_r+0x630>
   10be8:	02013783          	ld	a5,32(sp)
   10bec:	00100a13          	li	s4,1
   10bf0:	40fa0a3b          	subw	s4,s4,a5
   10bf4:	02d00793          	li	a5,45
   10bf8:	0ef108a3          	sb	a5,241(sp)
   10bfc:	00900793          	li	a5,9
   10c00:	0147c463          	blt	a5,s4,10c08 <_vfprintf_r+0x640>
   10c04:	0280206f          	j	12c2c <_vfprintf_r+0x2664>
   10c08:	0ff10b13          	addi	s6,sp,255
   10c0c:	000b0c93          	mv	s9,s6
   10c10:	06300493          	li	s1,99
   10c14:	00030b93          	mv	s7,t1
   10c18:	00c0006f          	j	10c24 <_vfprintf_r+0x65c>
   10c1c:	00060c93          	mv	s9,a2
   10c20:	00050a13          	mv	s4,a0
   10c24:	00a00593          	li	a1,10
   10c28:	000a0513          	mv	a0,s4
   10c2c:	eb4ff0ef          	jal	ra,102e0 <__moddi3>
   10c30:	0305051b          	addiw	a0,a0,48
   10c34:	feac8fa3          	sb	a0,-1(s9)
   10c38:	00a00593          	li	a1,10
   10c3c:	000a0513          	mv	a0,s4
   10c40:	e1cff0ef          	jal	ra,1025c <__divdi3>
   10c44:	fffc8613          	addi	a2,s9,-1
   10c48:	0005051b          	sext.w	a0,a0
   10c4c:	fd44c8e3          	blt	s1,s4,10c1c <_vfprintf_r+0x654>
   10c50:	0305079b          	addiw	a5,a0,48
   10c54:	0ff7f793          	andi	a5,a5,255
   10c58:	ffec8693          	addi	a3,s9,-2
   10c5c:	fef60fa3          	sb	a5,-1(a2)
   10c60:	000b8313          	mv	t1,s7
   10c64:	0166e463          	bltu	a3,s6,10c6c <_vfprintf_r+0x6a4>
   10c68:	0b00206f          	j	12d18 <_vfprintf_r+0x2750>
   10c6c:	0f210613          	addi	a2,sp,242
   10c70:	0080006f          	j	10c78 <_vfprintf_r+0x6b0>
   10c74:	0006c783          	lbu	a5,0(a3)
   10c78:	00160613          	addi	a2,a2,1
   10c7c:	00168693          	addi	a3,a3,1
   10c80:	fef60fa3          	sb	a5,-1(a2)
   10c84:	ff6698e3          	bne	a3,s6,10c74 <_vfprintf_r+0x6ac>
   10c88:	10110793          	addi	a5,sp,257
   10c8c:	419787b3          	sub	a5,a5,s9
   10c90:	0f210713          	addi	a4,sp,242
   10c94:	00f707b3          	add	a5,a4,a5
   10c98:	0f010693          	addi	a3,sp,240
   10c9c:	40d787bb          	subw	a5,a5,a3
   10ca0:	06f13423          	sd	a5,104(sp)
   10ca4:	06813783          	ld	a5,104(sp)
   10ca8:	02813703          	ld	a4,40(sp)
   10cac:	00100693          	li	a3,1
   10cb0:	00f70cbb          	addw	s9,a4,a5
   10cb4:	000c8793          	mv	a5,s9
   10cb8:	00e6c463          	blt	a3,a4,10cc0 <_vfprintf_r+0x6f8>
   10cbc:	7c10106f          	j	12c7c <_vfprintf_r+0x26b4>
   10cc0:	04813703          	ld	a4,72(sp)
   10cc4:	00e78cbb          	addw	s9,a5,a4
   10cc8:	04013783          	ld	a5,64(sp)
   10ccc:	fffcca13          	not	s4,s9
   10cd0:	43fa5a13          	srai	s4,s4,0x3f
   10cd4:	bff7f493          	andi	s1,a5,-1025
   10cd8:	0004849b          	sext.w	s1,s1
   10cdc:	014cfa33          	and	s4,s9,s4
   10ce0:	1004e493          	ori	s1,s1,256
   10ce4:	000a0a1b          	sext.w	s4,s4
   10ce8:	04013023          	sd	zero,64(sp)
   10cec:	02013c23          	sd	zero,56(sp)
   10cf0:	02013023          	sd	zero,32(sp)
   10cf4:	06013783          	ld	a5,96(sp)
   10cf8:	00079463          	bnez	a5,10d00 <_vfprintf_r+0x738>
   10cfc:	2050106f          	j	12700 <_vfprintf_r+0x2138>
   10d00:	02d00793          	li	a5,45
   10d04:	0cf10fa3          	sb	a5,223(sp)
   10d08:	00000b93          	li	s7,0
   10d0c:	001a0a1b          	addiw	s4,s4,1
   10d10:	2a40006f          	j	10fb4 <_vfprintf_r+0x9ec>
   10d14:	01013783          	ld	a5,16(sp)
   10d18:	0104e813          	ori	a6,s1,16
   10d1c:	000c8313          	mv	t1,s9
   10d20:	00080a1b          	sext.w	s4,a6
   10d24:	00878713          	addi	a4,a5,8
   10d28:	01013783          	ld	a5,16(sp)
   10d2c:	0007bb03          	ld	s6,0(a5)
   10d30:	00100793          	li	a5,1
   10d34:	00e13823          	sd	a4,16(sp)
   10d38:	bddff06f          	j	10914 <_vfprintf_r+0x34c>
   10d3c:	01013783          	ld	a5,16(sp)
   10d40:	0c010fa3          	sb	zero,223(sp)
   10d44:	000c8313          	mv	t1,s9
   10d48:	0007bd83          	ld	s11,0(a5)
   10d4c:	00878b13          	addi	s6,a5,8
   10d50:	000d9463          	bnez	s11,10d58 <_vfprintf_r+0x790>
   10d54:	7fd0006f          	j	11d50 <_vfprintf_r+0x1788>
   10d58:	fff00793          	li	a5,-1
   10d5c:	00fb9463          	bne	s7,a5,10d64 <_vfprintf_r+0x79c>
   10d60:	2780106f          	j	11fd8 <_vfprintf_r+0x1a10>
   10d64:	000b8613          	mv	a2,s7
   10d68:	00000593          	li	a1,0
   10d6c:	000d8513          	mv	a0,s11
   10d70:	01913823          	sd	s9,16(sp)
   10d74:	768060ef          	jal	ra,174dc <memchr>
   10d78:	00a13c23          	sd	a0,24(sp)
   10d7c:	01013303          	ld	t1,16(sp)
   10d80:	00051463          	bnez	a0,10d88 <_vfprintf_r+0x7c0>
   10d84:	2e90106f          	j	1286c <_vfprintf_r+0x22a4>
   10d88:	01813783          	ld	a5,24(sp)
   10d8c:	01613823          	sd	s6,16(sp)
   10d90:	00013c23          	sd	zero,24(sp)
   10d94:	41b78cbb          	subw	s9,a5,s11
   10d98:	fffcca13          	not	s4,s9
   10d9c:	0df14783          	lbu	a5,223(sp)
   10da0:	43fa5a13          	srai	s4,s4,0x3f
   10da4:	014cfa33          	and	s4,s9,s4
   10da8:	04013023          	sd	zero,64(sp)
   10dac:	02013c23          	sd	zero,56(sp)
   10db0:	02013023          	sd	zero,32(sp)
   10db4:	000a0a1b          	sext.w	s4,s4
   10db8:	00000b93          	li	s7,0
   10dbc:	ba0798e3          	bnez	a5,1096c <_vfprintf_r+0x3a4>
   10dc0:	1f40006f          	j	10fb4 <_vfprintf_r+0x9ec>
   10dc4:	01013703          	ld	a4,16(sp)
   10dc8:	0104e813          	ori	a6,s1,16
   10dcc:	000c8313          	mv	t1,s9
   10dd0:	0008049b          	sext.w	s1,a6
   10dd4:	00870713          	addi	a4,a4,8
   10dd8:	01013783          	ld	a5,16(sp)
   10ddc:	0007bb03          	ld	s6,0(a5)
   10de0:	00e13823          	sd	a4,16(sp)
   10de4:	bff4f813          	andi	a6,s1,-1025
   10de8:	00080a1b          	sext.w	s4,a6
   10dec:	00000793          	li	a5,0
   10df0:	b25ff06f          	j	10914 <_vfprintf_r+0x34c>
   10df4:	0084e493          	ori	s1,s1,8
   10df8:	0004849b          	sext.w	s1,s1
   10dfc:	00094403          	lbu	s0,0(s2)
   10e00:	985ff06f          	j	10784 <_vfprintf_r+0x1bc>
   10e04:	01013703          	ld	a4,16(sp)
   10e08:	0204f793          	andi	a5,s1,32
   10e0c:	000c8313          	mv	t1,s9
   10e10:	00870713          	addi	a4,a4,8
   10e14:	660790e3          	bnez	a5,11c74 <_vfprintf_r+0x16ac>
   10e18:	0104f793          	andi	a5,s1,16
   10e1c:	64079ce3          	bnez	a5,11c74 <_vfprintf_r+0x16ac>
   10e20:	0404f793          	andi	a5,s1,64
   10e24:	00079463          	bnez	a5,10e2c <_vfprintf_r+0x864>
   10e28:	22c0106f          	j	12054 <_vfprintf_r+0x1a8c>
   10e2c:	01013783          	ld	a5,16(sp)
   10e30:	00048a13          	mv	s4,s1
   10e34:	00e13823          	sd	a4,16(sp)
   10e38:	00079b03          	lh	s6,0(a5)
   10e3c:	000b0793          	mv	a5,s6
   10e40:	0c07c063          	bltz	a5,10f00 <_vfprintf_r+0x938>
   10e44:	fff00793          	li	a5,-1
   10e48:	56fb8063          	beq	s7,a5,113a8 <_vfprintf_r+0xde0>
   10e4c:	f7fa7813          	andi	a6,s4,-129
   10e50:	0008049b          	sext.w	s1,a6
   10e54:	540b1863          	bnez	s6,113a4 <_vfprintf_r+0xddc>
   10e58:	000b8463          	beqz	s7,10e60 <_vfprintf_r+0x898>
   10e5c:	7f80106f          	j	12654 <_vfprintf_r+0x208c>
   10e60:	00000b93          	li	s7,0
   10e64:	00000c93          	li	s9,0
   10e68:	18c10d93          	addi	s11,sp,396
   10e6c:	addff06f          	j	10948 <_vfprintf_r+0x380>
   10e70:	02b00793          	li	a5,43
   10e74:	0cf10fa3          	sb	a5,223(sp)
   10e78:	00094403          	lbu	s0,0(s2)
   10e7c:	909ff06f          	j	10784 <_vfprintf_r+0x1bc>
   10e80:	0804e493          	ori	s1,s1,128
   10e84:	0004849b          	sext.w	s1,s1
   10e88:	00094403          	lbu	s0,0(s2)
   10e8c:	8f9ff06f          	j	10784 <_vfprintf_r+0x1bc>
   10e90:	00094403          	lbu	s0,0(s2)
   10e94:	00190793          	addi	a5,s2,1
   10e98:	01641463          	bne	s0,s6,10ea0 <_vfprintf_r+0x8d8>
   10e9c:	6390106f          	j	12cd4 <_vfprintf_r+0x270c>
   10ea0:	fd04071b          	addiw	a4,s0,-48
   10ea4:	00078913          	mv	s2,a5
   10ea8:	00000b93          	li	s7,0
   10eac:	8eea62e3          	bltu	s4,a4,10790 <_vfprintf_r+0x1c8>
   10eb0:	00190913          	addi	s2,s2,1
   10eb4:	002b979b          	slliw	a5,s7,0x2
   10eb8:	fff94603          	lbu	a2,-1(s2)
   10ebc:	017787bb          	addw	a5,a5,s7
   10ec0:	0017979b          	slliw	a5,a5,0x1
   10ec4:	00e78bbb          	addw	s7,a5,a4
   10ec8:	fd06071b          	addiw	a4,a2,-48
   10ecc:	feea72e3          	bgeu	s4,a4,10eb0 <_vfprintf_r+0x8e8>
   10ed0:	00060413          	mv	s0,a2
   10ed4:	8bdff06f          	j	10790 <_vfprintf_r+0x1c8>
   10ed8:	01013783          	ld	a5,16(sp)
   10edc:	0104e813          	ori	a6,s1,16
   10ee0:	000c8313          	mv	t1,s9
   10ee4:	00080a1b          	sext.w	s4,a6
   10ee8:	00878713          	addi	a4,a5,8
   10eec:	01013783          	ld	a5,16(sp)
   10ef0:	0007b783          	ld	a5,0(a5)
   10ef4:	00e13823          	sd	a4,16(sp)
   10ef8:	00078b13          	mv	s6,a5
   10efc:	f407d4e3          	bgez	a5,10e44 <_vfprintf_r+0x87c>
   10f00:	02d00793          	li	a5,45
   10f04:	0cf10fa3          	sb	a5,223(sp)
   10f08:	fff00713          	li	a4,-1
   10f0c:	41600b33          	neg	s6,s6
   10f10:	00100793          	li	a5,1
   10f14:	a0eb96e3          	bne	s7,a4,10920 <_vfprintf_r+0x358>
   10f18:	00100713          	li	a4,1
   10f1c:	48e78663          	beq	a5,a4,113a8 <_vfprintf_r+0xde0>
   10f20:	00200713          	li	a4,2
   10f24:	2ce78ee3          	beq	a5,a4,11a00 <_vfprintf_r+0x1438>
   10f28:	18c10c93          	addi	s9,sp,396
   10f2c:	000c8693          	mv	a3,s9
   10f30:	0080006f          	j	10f38 <_vfprintf_r+0x970>
   10f34:	000d8693          	mv	a3,s11
   10f38:	007b7793          	andi	a5,s6,7
   10f3c:	03078793          	addi	a5,a5,48
   10f40:	fef68fa3          	sb	a5,-1(a3)
   10f44:	003b5b13          	srli	s6,s6,0x3
   10f48:	fff68d93          	addi	s11,a3,-1
   10f4c:	fe0b14e3          	bnez	s6,10f34 <_vfprintf_r+0x96c>
   10f50:	001a7613          	andi	a2,s4,1
   10f54:	4a060463          	beqz	a2,113fc <_vfprintf_r+0xe34>
   10f58:	03000613          	li	a2,48
   10f5c:	4ac78063          	beq	a5,a2,113fc <_vfprintf_r+0xe34>
   10f60:	ffe68693          	addi	a3,a3,-2
   10f64:	fecd8fa3          	sb	a2,-1(s11)
   10f68:	40dc8cbb          	subw	s9,s9,a3
   10f6c:	000a0493          	mv	s1,s4
   10f70:	00068d93          	mv	s11,a3
   10f74:	9d5ff06f          	j	10948 <_vfprintf_r+0x380>
   10f78:	01013703          	ld	a4,16(sp)
   10f7c:	000c8313          	mv	t1,s9
   10f80:	0c010fa3          	sb	zero,223(sp)
   10f84:	00072783          	lw	a5,0(a4)
   10f88:	00870713          	addi	a4,a4,8
   10f8c:	00e13823          	sd	a4,16(sp)
   10f90:	12f10423          	sb	a5,296(sp)
   10f94:	00100a13          	li	s4,1
   10f98:	00100c93          	li	s9,1
   10f9c:	12810d93          	addi	s11,sp,296
   10fa0:	00013c23          	sd	zero,24(sp)
   10fa4:	00000b93          	li	s7,0
   10fa8:	04013023          	sd	zero,64(sp)
   10fac:	02013c23          	sd	zero,56(sp)
   10fb0:	02013023          	sd	zero,32(sp)
   10fb4:	0024fe93          	andi	t4,s1,2
   10fb8:	000e8e9b          	sext.w	t4,t4
   10fbc:	000e8463          	beqz	t4,10fc4 <_vfprintf_r+0x9fc>
   10fc0:	002a0a1b          	addiw	s4,s4,2
   10fc4:	0844ff13          	andi	t5,s1,132
   10fc8:	12013783          	ld	a5,288(sp)
   10fcc:	000f1663          	bnez	t5,10fd8 <_vfprintf_r+0xa10>
   10fd0:	4149883b          	subw	a6,s3,s4
   10fd4:	030044e3          	bgtz	a6,117fc <_vfprintf_r+0x1234>
   10fd8:	0df14683          	lbu	a3,223(sp)
   10fdc:	02068c63          	beqz	a3,11014 <_vfprintf_r+0xa4c>
   10fe0:	11812683          	lw	a3,280(sp)
   10fe4:	0df10613          	addi	a2,sp,223
   10fe8:	00c33023          	sd	a2,0(t1)
   10fec:	0016869b          	addiw	a3,a3,1
   10ff0:	00100613          	li	a2,1
   10ff4:	00178793          	addi	a5,a5,1
   10ff8:	00c33423          	sd	a2,8(t1)
   10ffc:	10d12c23          	sw	a3,280(sp)
   11000:	0006861b          	sext.w	a2,a3
   11004:	12f13023          	sd	a5,288(sp)
   11008:	00700693          	li	a3,7
   1100c:	01030313          	addi	t1,t1,16
   11010:	0ec6c663          	blt	a3,a2,110fc <_vfprintf_r+0xb34>
   11014:	020e8c63          	beqz	t4,1104c <_vfprintf_r+0xa84>
   11018:	11812683          	lw	a3,280(sp)
   1101c:	0e010613          	addi	a2,sp,224
   11020:	00c33023          	sd	a2,0(t1)
   11024:	0016869b          	addiw	a3,a3,1
   11028:	00200613          	li	a2,2
   1102c:	00278793          	addi	a5,a5,2
   11030:	00c33423          	sd	a2,8(t1)
   11034:	10d12c23          	sw	a3,280(sp)
   11038:	0006861b          	sext.w	a2,a3
   1103c:	12f13023          	sd	a5,288(sp)
   11040:	00700693          	li	a3,7
   11044:	01030313          	addi	t1,t1,16
   11048:	0cc6c4e3          	blt	a3,a2,11910 <_vfprintf_r+0x1348>
   1104c:	08000693          	li	a3,128
   11050:	4edf0063          	beq	t5,a3,11530 <_vfprintf_r+0xf68>
   11054:	419b8bbb          	subw	s7,s7,s9
   11058:	5b704e63          	bgtz	s7,11614 <_vfprintf_r+0x104c>
   1105c:	1004f693          	andi	a3,s1,256
   11060:	3a069463          	bnez	a3,11408 <_vfprintf_r+0xe40>
   11064:	11812703          	lw	a4,280(sp)
   11068:	019787b3          	add	a5,a5,s9
   1106c:	01b33023          	sd	s11,0(t1)
   11070:	0017069b          	addiw	a3,a4,1
   11074:	01933423          	sd	s9,8(t1)
   11078:	12f13023          	sd	a5,288(sp)
   1107c:	10d12c23          	sw	a3,280(sp)
   11080:	00700713          	li	a4,7
   11084:	12d74463          	blt	a4,a3,111ac <_vfprintf_r+0xbe4>
   11088:	01030313          	addi	t1,t1,16
   1108c:	0044f493          	andi	s1,s1,4
   11090:	00048663          	beqz	s1,1109c <_vfprintf_r+0xad4>
   11094:	4149843b          	subw	s0,s3,s4
   11098:	0a8042e3          	bgtz	s0,1193c <_vfprintf_r+0x1374>
   1109c:	00098713          	mv	a4,s3
   110a0:	0149d463          	bge	s3,s4,110a8 <_vfprintf_r+0xae0>
   110a4:	000a0713          	mv	a4,s4
   110a8:	00813683          	ld	a3,8(sp)
   110ac:	00d7073b          	addw	a4,a4,a3
   110b0:	00e13423          	sd	a4,8(sp)
   110b4:	f8079863          	bnez	a5,10844 <_vfprintf_r+0x27c>
   110b8:	01813783          	ld	a5,24(sp)
   110bc:	10012c23          	sw	zero,280(sp)
   110c0:	00078863          	beqz	a5,110d0 <_vfprintf_r+0xb08>
   110c4:	01813583          	ld	a1,24(sp)
   110c8:	000a8513          	mv	a0,s5
   110cc:	7ec020ef          	jal	ra,138b8 <_free_r>
   110d0:	19010313          	addi	t1,sp,400
   110d4:	00090d93          	mv	s11,s2
   110d8:	000dc783          	lbu	a5,0(s11)
   110dc:	e0079863          	bnez	a5,106ec <_vfprintf_r+0x124>
   110e0:	12013783          	ld	a5,288(sp)
   110e4:	f8078463          	beqz	a5,1086c <_vfprintf_r+0x2a4>
   110e8:	00013583          	ld	a1,0(sp)
   110ec:	03013503          	ld	a0,48(sp)
   110f0:	11010613          	addi	a2,sp,272
   110f4:	56c0a0ef          	jal	ra,1b660 <__sprint_r>
   110f8:	f74ff06f          	j	1086c <_vfprintf_r+0x2a4>
   110fc:	00013583          	ld	a1,0(sp)
   11100:	11010613          	addi	a2,sp,272
   11104:	000a8513          	mv	a0,s5
   11108:	09e13023          	sd	t5,128(sp)
   1110c:	07d13023          	sd	t4,96(sp)
   11110:	5500a0ef          	jal	ra,1b660 <__sprint_r>
   11114:	f4051263          	bnez	a0,10858 <_vfprintf_r+0x290>
   11118:	12013783          	ld	a5,288(sp)
   1111c:	19010313          	addi	t1,sp,400
   11120:	08013f03          	ld	t5,128(sp)
   11124:	06013e83          	ld	t4,96(sp)
   11128:	eedff06f          	j	11014 <_vfprintf_r+0xa4c>
   1112c:	11812603          	lw	a2,280(sp)
   11130:	04813703          	ld	a4,72(sp)
   11134:	05813683          	ld	a3,88(sp)
   11138:	01030313          	addi	t1,t1,16
   1113c:	00f707b3          	add	a5,a4,a5
   11140:	fed33823          	sd	a3,-16(t1)
   11144:	0016069b          	addiw	a3,a2,1
   11148:	fee33c23          	sd	a4,-8(t1)
   1114c:	12f13023          	sd	a5,288(sp)
   11150:	10d12c23          	sw	a3,280(sp)
   11154:	00700613          	li	a2,7
   11158:	02d65463          	bge	a2,a3,11180 <_vfprintf_r+0xbb8>
   1115c:	00013583          	ld	a1,0(sp)
   11160:	11010613          	addi	a2,sp,272
   11164:	000a8513          	mv	a0,s5
   11168:	4f80a0ef          	jal	ra,1b660 <__sprint_r>
   1116c:	ee051663          	bnez	a0,10858 <_vfprintf_r+0x290>
   11170:	0e812583          	lw	a1,232(sp)
   11174:	12013783          	ld	a5,288(sp)
   11178:	11812683          	lw	a3,280(sp)
   1117c:	19010313          	addi	t1,sp,400
   11180:	0005d463          	bgez	a1,11188 <_vfprintf_r+0xbc0>
   11184:	7a40106f          	j	12928 <_vfprintf_r+0x2360>
   11188:	02813703          	ld	a4,40(sp)
   1118c:	0016861b          	addiw	a2,a3,1
   11190:	01b33023          	sd	s11,0(t1)
   11194:	00f707b3          	add	a5,a4,a5
   11198:	00e33423          	sd	a4,8(t1)
   1119c:	12f13023          	sd	a5,288(sp)
   111a0:	10c12c23          	sw	a2,280(sp)
   111a4:	00700713          	li	a4,7
   111a8:	eec750e3          	bge	a4,a2,11088 <_vfprintf_r+0xac0>
   111ac:	00013583          	ld	a1,0(sp)
   111b0:	11010613          	addi	a2,sp,272
   111b4:	000a8513          	mv	a0,s5
   111b8:	4a80a0ef          	jal	ra,1b660 <__sprint_r>
   111bc:	e8051e63          	bnez	a0,10858 <_vfprintf_r+0x290>
   111c0:	12013783          	ld	a5,288(sp)
   111c4:	19010313          	addi	t1,sp,400
   111c8:	ec5ff06f          	j	1108c <_vfprintf_r+0xac4>
   111cc:	01013783          	ld	a5,16(sp)
   111d0:	00094403          	lbu	s0,0(s2)
   111d4:	0007a983          	lw	s3,0(a5)
   111d8:	00878793          	addi	a5,a5,8
   111dc:	00f13823          	sd	a5,16(sp)
   111e0:	da09d263          	bgez	s3,10784 <_vfprintf_r+0x1bc>
   111e4:	413009bb          	negw	s3,s3
   111e8:	835ff06f          	j	10a1c <_vfprintf_r+0x454>
   111ec:	000a8513          	mv	a0,s5
   111f0:	788050ef          	jal	ra,16978 <_localeconv_r>
   111f4:	00853783          	ld	a5,8(a0)
   111f8:	00078513          	mv	a0,a5
   111fc:	06f13823          	sd	a5,112(sp)
   11200:	2b1070ef          	jal	ra,18cb0 <strlen>
   11204:	08a13423          	sd	a0,136(sp)
   11208:	00050413          	mv	s0,a0
   1120c:	000a8513          	mv	a0,s5
   11210:	768050ef          	jal	ra,16978 <_localeconv_r>
   11214:	01053783          	ld	a5,16(a0)
   11218:	06f13c23          	sd	a5,120(sp)
   1121c:	22040ee3          	beqz	s0,11c58 <_vfprintf_r+0x1690>
   11220:	00094403          	lbu	s0,0(s2)
   11224:	d6078063          	beqz	a5,10784 <_vfprintf_r+0x1bc>
   11228:	0007c783          	lbu	a5,0(a5)
   1122c:	d4078c63          	beqz	a5,10784 <_vfprintf_r+0x1bc>
   11230:	4004e493          	ori	s1,s1,1024
   11234:	0004849b          	sext.w	s1,s1
   11238:	d4cff06f          	j	10784 <_vfprintf_r+0x1bc>
   1123c:	0014e493          	ori	s1,s1,1
   11240:	0004849b          	sext.w	s1,s1
   11244:	00094403          	lbu	s0,0(s2)
   11248:	d3cff06f          	j	10784 <_vfprintf_r+0x1bc>
   1124c:	0df14783          	lbu	a5,223(sp)
   11250:	00094403          	lbu	s0,0(s2)
   11254:	d2079863          	bnez	a5,10784 <_vfprintf_r+0x1bc>
   11258:	02000793          	li	a5,32
   1125c:	0cf10fa3          	sb	a5,223(sp)
   11260:	d24ff06f          	j	10784 <_vfprintf_r+0x1bc>
   11264:	01013703          	ld	a4,16(sp)
   11268:	0204f793          	andi	a5,s1,32
   1126c:	000c8313          	mv	t1,s9
   11270:	00870713          	addi	a4,a4,8
   11274:	1e079ce3          	bnez	a5,11c6c <_vfprintf_r+0x16a4>
   11278:	0104f793          	andi	a5,s1,16
   1127c:	1e0798e3          	bnez	a5,11c6c <_vfprintf_r+0x16a4>
   11280:	01013683          	ld	a3,16(sp)
   11284:	0404f793          	andi	a5,s1,64
   11288:	0006ab03          	lw	s6,0(a3)
   1128c:	5a0786e3          	beqz	a5,12038 <_vfprintf_r+0x1a70>
   11290:	030b1b13          	slli	s6,s6,0x30
   11294:	030b5b13          	srli	s6,s6,0x30
   11298:	00e13823          	sd	a4,16(sp)
   1129c:	00048a13          	mv	s4,s1
   112a0:	00100793          	li	a5,1
   112a4:	e70ff06f          	j	10914 <_vfprintf_r+0x34c>
   112a8:	0204e493          	ori	s1,s1,32
   112ac:	0004849b          	sext.w	s1,s1
   112b0:	00094403          	lbu	s0,0(s2)
   112b4:	cd0ff06f          	j	10784 <_vfprintf_r+0x1bc>
   112b8:	01013703          	ld	a4,16(sp)
   112bc:	ffff87b7          	lui	a5,0xffff8
   112c0:	8307c793          	xori	a5,a5,-2000
   112c4:	0ef11023          	sh	a5,224(sp)
   112c8:	00870793          	addi	a5,a4,8
   112cc:	0024e813          	ori	a6,s1,2
   112d0:	00f13823          	sd	a5,16(sp)
   112d4:	00010797          	auipc	a5,0x10
   112d8:	12c78793          	addi	a5,a5,300 # 21400 <zeroes.4539+0x60>
   112dc:	04f13823          	sd	a5,80(sp)
   112e0:	000c8313          	mv	t1,s9
   112e4:	00073b03          	ld	s6,0(a4)
   112e8:	00080a1b          	sext.w	s4,a6
   112ec:	00200793          	li	a5,2
   112f0:	07800413          	li	s0,120
   112f4:	e20ff06f          	j	10914 <_vfprintf_r+0x34c>
   112f8:	01013703          	ld	a4,16(sp)
   112fc:	0204f793          	andi	a5,s1,32
   11300:	000c8313          	mv	t1,s9
   11304:	00870713          	addi	a4,a4,8
   11308:	ac0798e3          	bnez	a5,10dd8 <_vfprintf_r+0x810>
   1130c:	0104f793          	andi	a5,s1,16
   11310:	ac0794e3          	bnez	a5,10dd8 <_vfprintf_r+0x810>
   11314:	01013683          	ld	a3,16(sp)
   11318:	0404f793          	andi	a5,s1,64
   1131c:	0006ab03          	lw	s6,0(a3)
   11320:	500782e3          	beqz	a5,12024 <_vfprintf_r+0x1a5c>
   11324:	030b1b13          	slli	s6,s6,0x30
   11328:	030b5b13          	srli	s6,s6,0x30
   1132c:	00e13823          	sd	a4,16(sp)
   11330:	ab5ff06f          	j	10de4 <_vfprintf_r+0x81c>
   11334:	01013683          	ld	a3,16(sp)
   11338:	0204f793          	andi	a5,s1,32
   1133c:	000c8313          	mv	t1,s9
   11340:	0006b703          	ld	a4,0(a3)
   11344:	00868693          	addi	a3,a3,8
   11348:	00d13823          	sd	a3,16(sp)
   1134c:	0e079ee3          	bnez	a5,11c48 <_vfprintf_r+0x1680>
   11350:	0104f793          	andi	a5,s1,16
   11354:	0e079ae3          	bnez	a5,11c48 <_vfprintf_r+0x1680>
   11358:	0404f793          	andi	a5,s1,64
   1135c:	00078463          	beqz	a5,11364 <_vfprintf_r+0xd9c>
   11360:	01c0106f          	j	1237c <_vfprintf_r+0x1db4>
   11364:	2004f493          	andi	s1,s1,512
   11368:	00813783          	ld	a5,8(sp)
   1136c:	00049463          	bnez	s1,11374 <_vfprintf_r+0xdac>
   11370:	7980106f          	j	12b08 <_vfprintf_r+0x2540>
   11374:	00f70023          	sb	a5,0(a4)
   11378:	00090d93          	mv	s11,s2
   1137c:	d5dff06f          	j	110d8 <_vfprintf_r+0xb10>
   11380:	00094403          	lbu	s0,0(s2)
   11384:	06c00793          	li	a5,108
   11388:	16f40ee3          	beq	s0,a5,11d04 <_vfprintf_r+0x173c>
   1138c:	0104e493          	ori	s1,s1,16
   11390:	0004849b          	sext.w	s1,s1
   11394:	bf0ff06f          	j	10784 <_vfprintf_r+0x1bc>
   11398:	03013503          	ld	a0,48(sp)
   1139c:	39c020ef          	jal	ra,13738 <__sinit>
   113a0:	aa0ff06f          	j	10640 <_vfprintf_r+0x78>
   113a4:	00048a13          	mv	s4,s1
   113a8:	00900793          	li	a5,9
   113ac:	3167e4e3          	bltu	a5,s6,11eb4 <_vfprintf_r+0x18ec>
   113b0:	030b0b1b          	addiw	s6,s6,48
   113b4:	196105a3          	sb	s6,395(sp)
   113b8:	000a0493          	mv	s1,s4
   113bc:	00100c93          	li	s9,1
   113c0:	18b10d93          	addi	s11,sp,395
   113c4:	d84ff06f          	j	10948 <_vfprintf_r+0x380>
   113c8:	0ff00793          	li	a5,255
   113cc:	34f686e3          	beq	a3,a5,11f18 <_vfprintf_r+0x1950>
   113d0:	00900793          	li	a5,9
   113d4:	7537e6e3          	bltu	a5,s3,12320 <_vfprintf_r+0x1d58>
   113d8:	07213c23          	sd	s2,120(sp)
   113dc:	000a8313          	mv	t1,s5
   113e0:	03813983          	ld	s3,56(sp)
   113e4:	000c8a93          	mv	s5,s9
   113e8:	01813903          	ld	s2,24(sp)
   113ec:	000d8c93          	mv	s9,s11
   113f0:	00040d93          	mv	s11,s0
   113f4:	02013403          	ld	s0,32(sp)
   113f8:	02913423          	sd	s1,40(sp)
   113fc:	41bc8cbb          	subw	s9,s9,s11
   11400:	000a0493          	mv	s1,s4
   11404:	d44ff06f          	j	10948 <_vfprintf_r+0x380>
   11408:	06500693          	li	a3,101
   1140c:	2e86d063          	bge	a3,s0,116ec <_vfprintf_r+0x1124>
   11410:	10013503          	ld	a0,256(sp)
   11414:	10813583          	ld	a1,264(sp)
   11418:	00000613          	li	a2,0
   1141c:	00000693          	li	a3,0
   11420:	08613023          	sd	t1,128(sp)
   11424:	06f13023          	sd	a5,96(sp)
   11428:	0790e0ef          	jal	ra,1fca0 <__eqtf2>
   1142c:	06013783          	ld	a5,96(sp)
   11430:	08013303          	ld	t1,128(sp)
   11434:	60051063          	bnez	a0,11a34 <_vfprintf_r+0x146c>
   11438:	11812703          	lw	a4,280(sp)
   1143c:	00010697          	auipc	a3,0x10
   11440:	ffc68693          	addi	a3,a3,-4 # 21438 <zeroes.4539+0x98>
   11444:	00178793          	addi	a5,a5,1
   11448:	0017071b          	addiw	a4,a4,1
   1144c:	00d33023          	sd	a3,0(t1)
   11450:	00100693          	li	a3,1
   11454:	00d33423          	sd	a3,8(t1)
   11458:	12f13023          	sd	a5,288(sp)
   1145c:	0007069b          	sext.w	a3,a4
   11460:	10e12c23          	sw	a4,280(sp)
   11464:	00700793          	li	a5,7
   11468:	01030313          	addi	t1,t1,16
   1146c:	2cd7c4e3          	blt	a5,a3,11f34 <_vfprintf_r+0x196c>
   11470:	0e812783          	lw	a5,232(sp)
   11474:	02813703          	ld	a4,40(sp)
   11478:	00e7ca63          	blt	a5,a4,1148c <_vfprintf_r+0xec4>
   1147c:	0014f793          	andi	a5,s1,1
   11480:	00079663          	bnez	a5,1148c <_vfprintf_r+0xec4>
   11484:	12013783          	ld	a5,288(sp)
   11488:	c05ff06f          	j	1108c <_vfprintf_r+0xac4>
   1148c:	05813783          	ld	a5,88(sp)
   11490:	04813683          	ld	a3,72(sp)
   11494:	11812703          	lw	a4,280(sp)
   11498:	00f33023          	sd	a5,0(t1)
   1149c:	12013783          	ld	a5,288(sp)
   114a0:	0017071b          	addiw	a4,a4,1
   114a4:	00d33423          	sd	a3,8(t1)
   114a8:	00f687b3          	add	a5,a3,a5
   114ac:	10e12c23          	sw	a4,280(sp)
   114b0:	0007069b          	sext.w	a3,a4
   114b4:	12f13023          	sd	a5,288(sp)
   114b8:	00700713          	li	a4,7
   114bc:	01030313          	addi	t1,t1,16
   114c0:	06d746e3          	blt	a4,a3,11d2c <_vfprintf_r+0x1764>
   114c4:	02813703          	ld	a4,40(sp)
   114c8:	fff7041b          	addiw	s0,a4,-1
   114cc:	bc8050e3          	blez	s0,1108c <_vfprintf_r+0xac4>
   114d0:	11812703          	lw	a4,280(sp)
   114d4:	288d50e3          	bge	s10,s0,11f54 <_vfprintf_r+0x198c>
   114d8:	00700c93          	li	s9,7
   114dc:	00013b03          	ld	s6,0(sp)
   114e0:	00c0006f          	j	114ec <_vfprintf_r+0xf24>
   114e4:	ff04041b          	addiw	s0,s0,-16
   114e8:	268d56e3          	bge	s10,s0,11f54 <_vfprintf_r+0x198c>
   114ec:	0017071b          	addiw	a4,a4,1
   114f0:	01078793          	addi	a5,a5,16
   114f4:	01833023          	sd	s8,0(t1)
   114f8:	01a33423          	sd	s10,8(t1)
   114fc:	12f13023          	sd	a5,288(sp)
   11500:	10e12c23          	sw	a4,280(sp)
   11504:	01030313          	addi	t1,t1,16
   11508:	fcecdee3          	bge	s9,a4,114e4 <_vfprintf_r+0xf1c>
   1150c:	11010613          	addi	a2,sp,272
   11510:	000b0593          	mv	a1,s6
   11514:	000a8513          	mv	a0,s5
   11518:	1480a0ef          	jal	ra,1b660 <__sprint_r>
   1151c:	b2051e63          	bnez	a0,10858 <_vfprintf_r+0x290>
   11520:	12013783          	ld	a5,288(sp)
   11524:	11812703          	lw	a4,280(sp)
   11528:	19010313          	addi	t1,sp,400
   1152c:	fb9ff06f          	j	114e4 <_vfprintf_r+0xf1c>
   11530:	41498b3b          	subw	s6,s3,s4
   11534:	b36050e3          	blez	s6,11054 <_vfprintf_r+0xa8c>
   11538:	11812683          	lw	a3,280(sp)
   1153c:	096d5a63          	bge	s10,s6,115d0 <_vfprintf_r+0x1008>
   11540:	000b0713          	mv	a4,s6
   11544:	06813023          	sd	s0,96(sp)
   11548:	000a0b13          	mv	s6,s4
   1154c:	00700893          	li	a7,7
   11550:	00098a13          	mv	s4,s3
   11554:	00013403          	ld	s0,0(sp)
   11558:	00048993          	mv	s3,s1
   1155c:	00070493          	mv	s1,a4
   11560:	00c0006f          	j	1156c <_vfprintf_r+0xfa4>
   11564:	ff04849b          	addiw	s1,s1,-16
   11568:	049d5863          	bge	s10,s1,115b8 <_vfprintf_r+0xff0>
   1156c:	0016869b          	addiw	a3,a3,1
   11570:	01078793          	addi	a5,a5,16
   11574:	01833023          	sd	s8,0(t1)
   11578:	01a33423          	sd	s10,8(t1)
   1157c:	12f13023          	sd	a5,288(sp)
   11580:	10d12c23          	sw	a3,280(sp)
   11584:	01030313          	addi	t1,t1,16
   11588:	fcd8dee3          	bge	a7,a3,11564 <_vfprintf_r+0xf9c>
   1158c:	11010613          	addi	a2,sp,272
   11590:	00040593          	mv	a1,s0
   11594:	000a8513          	mv	a0,s5
   11598:	0c80a0ef          	jal	ra,1b660 <__sprint_r>
   1159c:	aa051e63          	bnez	a0,10858 <_vfprintf_r+0x290>
   115a0:	ff04849b          	addiw	s1,s1,-16
   115a4:	12013783          	ld	a5,288(sp)
   115a8:	11812683          	lw	a3,280(sp)
   115ac:	19010313          	addi	t1,sp,400
   115b0:	00700893          	li	a7,7
   115b4:	fa9d4ce3          	blt	s10,s1,1156c <_vfprintf_r+0xfa4>
   115b8:	06013403          	ld	s0,96(sp)
   115bc:	00048713          	mv	a4,s1
   115c0:	00098493          	mv	s1,s3
   115c4:	000a0993          	mv	s3,s4
   115c8:	000b0a13          	mv	s4,s6
   115cc:	00070b13          	mv	s6,a4
   115d0:	0016861b          	addiw	a2,a3,1
   115d4:	016787b3          	add	a5,a5,s6
   115d8:	01833023          	sd	s8,0(t1)
   115dc:	01633423          	sd	s6,8(t1)
   115e0:	12f13023          	sd	a5,288(sp)
   115e4:	10c12c23          	sw	a2,280(sp)
   115e8:	00700693          	li	a3,7
   115ec:	01030313          	addi	t1,t1,16
   115f0:	a6c6d2e3          	bge	a3,a2,11054 <_vfprintf_r+0xa8c>
   115f4:	00013583          	ld	a1,0(sp)
   115f8:	11010613          	addi	a2,sp,272
   115fc:	000a8513          	mv	a0,s5
   11600:	0600a0ef          	jal	ra,1b660 <__sprint_r>
   11604:	a4051a63          	bnez	a0,10858 <_vfprintf_r+0x290>
   11608:	12013783          	ld	a5,288(sp)
   1160c:	19010313          	addi	t1,sp,400
   11610:	a45ff06f          	j	11054 <_vfprintf_r+0xa8c>
   11614:	11812683          	lw	a3,280(sp)
   11618:	097d5863          	bge	s10,s7,116a8 <_vfprintf_r+0x10e0>
   1161c:	000a0713          	mv	a4,s4
   11620:	06813023          	sd	s0,96(sp)
   11624:	00098a13          	mv	s4,s3
   11628:	00700b13          	li	s6,7
   1162c:	00048993          	mv	s3,s1
   11630:	00013403          	ld	s0,0(sp)
   11634:	000b8493          	mv	s1,s7
   11638:	00070b93          	mv	s7,a4
   1163c:	00c0006f          	j	11648 <_vfprintf_r+0x1080>
   11640:	ff04849b          	addiw	s1,s1,-16
   11644:	049d5663          	bge	s10,s1,11690 <_vfprintf_r+0x10c8>
   11648:	0016869b          	addiw	a3,a3,1
   1164c:	01078793          	addi	a5,a5,16
   11650:	01833023          	sd	s8,0(t1)
   11654:	01a33423          	sd	s10,8(t1)
   11658:	12f13023          	sd	a5,288(sp)
   1165c:	10d12c23          	sw	a3,280(sp)
   11660:	01030313          	addi	t1,t1,16
   11664:	fcdb5ee3          	bge	s6,a3,11640 <_vfprintf_r+0x1078>
   11668:	11010613          	addi	a2,sp,272
   1166c:	00040593          	mv	a1,s0
   11670:	000a8513          	mv	a0,s5
   11674:	7ed090ef          	jal	ra,1b660 <__sprint_r>
   11678:	9e051063          	bnez	a0,10858 <_vfprintf_r+0x290>
   1167c:	ff04849b          	addiw	s1,s1,-16
   11680:	12013783          	ld	a5,288(sp)
   11684:	11812683          	lw	a3,280(sp)
   11688:	19010313          	addi	t1,sp,400
   1168c:	fa9d4ee3          	blt	s10,s1,11648 <_vfprintf_r+0x1080>
   11690:	06013403          	ld	s0,96(sp)
   11694:	000b8713          	mv	a4,s7
   11698:	00048b93          	mv	s7,s1
   1169c:	00098493          	mv	s1,s3
   116a0:	000a0993          	mv	s3,s4
   116a4:	00070a13          	mv	s4,a4
   116a8:	0016861b          	addiw	a2,a3,1
   116ac:	017787b3          	add	a5,a5,s7
   116b0:	01833023          	sd	s8,0(t1)
   116b4:	01733423          	sd	s7,8(t1)
   116b8:	12f13023          	sd	a5,288(sp)
   116bc:	10c12c23          	sw	a2,280(sp)
   116c0:	00700693          	li	a3,7
   116c4:	01030313          	addi	t1,t1,16
   116c8:	98c6dae3          	bge	a3,a2,1105c <_vfprintf_r+0xa94>
   116cc:	00013583          	ld	a1,0(sp)
   116d0:	11010613          	addi	a2,sp,272
   116d4:	000a8513          	mv	a0,s5
   116d8:	789090ef          	jal	ra,1b660 <__sprint_r>
   116dc:	96051e63          	bnez	a0,10858 <_vfprintf_r+0x290>
   116e0:	12013783          	ld	a5,288(sp)
   116e4:	19010313          	addi	t1,sp,400
   116e8:	975ff06f          	j	1105c <_vfprintf_r+0xa94>
   116ec:	11812583          	lw	a1,280(sp)
   116f0:	02813703          	ld	a4,40(sp)
   116f4:	00178c93          	addi	s9,a5,1
   116f8:	00100613          	li	a2,1
   116fc:	0015879b          	addiw	a5,a1,1
   11700:	01b33023          	sd	s11,0(t1)
   11704:	00078693          	mv	a3,a5
   11708:	01030413          	addi	s0,t1,16
   1170c:	48e65c63          	bge	a2,a4,11ba4 <_vfprintf_r+0x15dc>
   11710:	00100613          	li	a2,1
   11714:	10d12c23          	sw	a3,280(sp)
   11718:	00c33423          	sd	a2,8(t1)
   1171c:	13913023          	sd	s9,288(sp)
   11720:	00700693          	li	a3,7
   11724:	6cf6c063          	blt	a3,a5,11de4 <_vfprintf_r+0x181c>
   11728:	0017869b          	addiw	a3,a5,1
   1172c:	04813783          	ld	a5,72(sp)
   11730:	05813703          	ld	a4,88(sp)
   11734:	10d12c23          	sw	a3,280(sp)
   11738:	00fc8cb3          	add	s9,s9,a5
   1173c:	00f43423          	sd	a5,8(s0)
   11740:	00e43023          	sd	a4,0(s0)
   11744:	0006879b          	sext.w	a5,a3
   11748:	13913023          	sd	s9,288(sp)
   1174c:	00700693          	li	a3,7
   11750:	01040413          	addi	s0,s0,16
   11754:	6af6cc63          	blt	a3,a5,11e0c <_vfprintf_r+0x1844>
   11758:	0017889b          	addiw	a7,a5,1
   1175c:	04f13023          	sd	a5,64(sp)
   11760:	10013503          	ld	a0,256(sp)
   11764:	02813783          	ld	a5,40(sp)
   11768:	10813583          	ld	a1,264(sp)
   1176c:	01040313          	addi	t1,s0,16
   11770:	00000613          	li	a2,0
   11774:	00000693          	li	a3,0
   11778:	00088b1b          	sext.w	s6,a7
   1177c:	03113c23          	sd	a7,56(sp)
   11780:	02613023          	sd	t1,32(sp)
   11784:	fff78b9b          	addiw	s7,a5,-1
   11788:	5180e0ef          	jal	ra,1fca0 <__eqtf2>
   1178c:	02013303          	ld	t1,32(sp)
   11790:	03813883          	ld	a7,56(sp)
   11794:	42050c63          	beqz	a0,11bcc <_vfprintf_r+0x1604>
   11798:	001d8713          	addi	a4,s11,1
   1179c:	017c8cb3          	add	s9,s9,s7
   117a0:	00e43023          	sd	a4,0(s0)
   117a4:	01743423          	sd	s7,8(s0)
   117a8:	13913023          	sd	s9,288(sp)
   117ac:	11112c23          	sw	a7,280(sp)
   117b0:	00700713          	li	a4,7
   117b4:	53674063          	blt	a4,s6,11cd4 <_vfprintf_r+0x170c>
   117b8:	04013783          	ld	a5,64(sp)
   117bc:	02040713          	addi	a4,s0,32
   117c0:	00030413          	mv	s0,t1
   117c4:	00278b1b          	addiw	s6,a5,2
   117c8:	00070313          	mv	t1,a4
   117cc:	06813683          	ld	a3,104(sp)
   117d0:	0f010713          	addi	a4,sp,240
   117d4:	00e43023          	sd	a4,0(s0)
   117d8:	00dc87b3          	add	a5,s9,a3
   117dc:	00d43423          	sd	a3,8(s0)
   117e0:	12f13023          	sd	a5,288(sp)
   117e4:	11612c23          	sw	s6,280(sp)
   117e8:	00700713          	li	a4,7
   117ec:	8b6750e3          	bge	a4,s6,1108c <_vfprintf_r+0xac4>
   117f0:	9bdff06f          	j	111ac <_vfprintf_r+0xbe4>
   117f4:	00048a13          	mv	s4,s1
   117f8:	f20ff06f          	j	10f18 <_vfprintf_r+0x950>
   117fc:	11812683          	lw	a3,280(sp)
   11800:	00010b17          	auipc	s6,0x10
   11804:	b90b0b13          	addi	s6,s6,-1136 # 21390 <blanks.4538>
   11808:	0b0d5863          	bge	s10,a6,118b8 <_vfprintf_r+0x12f0>
   1180c:	09213823          	sd	s2,144(sp)
   11810:	08813c23          	sd	s0,152(sp)
   11814:	000b0913          	mv	s2,s6
   11818:	00700f93          	li	t6,7
   1181c:	000a0b13          	mv	s6,s4
   11820:	07d13023          	sd	t4,96(sp)
   11824:	00098a13          	mv	s4,s3
   11828:	09e13023          	sd	t5,128(sp)
   1182c:	00048993          	mv	s3,s1
   11830:	00080413          	mv	s0,a6
   11834:	00013483          	ld	s1,0(sp)
   11838:	00c0006f          	j	11844 <_vfprintf_r+0x127c>
   1183c:	ff04041b          	addiw	s0,s0,-16
   11840:	048d5a63          	bge	s10,s0,11894 <_vfprintf_r+0x12cc>
   11844:	0016869b          	addiw	a3,a3,1
   11848:	01078793          	addi	a5,a5,16
   1184c:	01233023          	sd	s2,0(t1)
   11850:	01a33423          	sd	s10,8(t1)
   11854:	12f13023          	sd	a5,288(sp)
   11858:	10d12c23          	sw	a3,280(sp)
   1185c:	01030313          	addi	t1,t1,16
   11860:	fcdfdee3          	bge	t6,a3,1183c <_vfprintf_r+0x1274>
   11864:	11010613          	addi	a2,sp,272
   11868:	00048593          	mv	a1,s1
   1186c:	000a8513          	mv	a0,s5
   11870:	5f1090ef          	jal	ra,1b660 <__sprint_r>
   11874:	00050463          	beqz	a0,1187c <_vfprintf_r+0x12b4>
   11878:	fe1fe06f          	j	10858 <_vfprintf_r+0x290>
   1187c:	ff04041b          	addiw	s0,s0,-16
   11880:	12013783          	ld	a5,288(sp)
   11884:	11812683          	lw	a3,280(sp)
   11888:	19010313          	addi	t1,sp,400
   1188c:	00700f93          	li	t6,7
   11890:	fa8d4ae3          	blt	s10,s0,11844 <_vfprintf_r+0x127c>
   11894:	00098493          	mv	s1,s3
   11898:	00040813          	mv	a6,s0
   1189c:	000a0993          	mv	s3,s4
   118a0:	06013e83          	ld	t4,96(sp)
   118a4:	000b0a13          	mv	s4,s6
   118a8:	08013f03          	ld	t5,128(sp)
   118ac:	00090b13          	mv	s6,s2
   118b0:	09813403          	ld	s0,152(sp)
   118b4:	09013903          	ld	s2,144(sp)
   118b8:	0016861b          	addiw	a2,a3,1
   118bc:	010787b3          	add	a5,a5,a6
   118c0:	01633023          	sd	s6,0(t1)
   118c4:	01033423          	sd	a6,8(t1)
   118c8:	12f13023          	sd	a5,288(sp)
   118cc:	10c12c23          	sw	a2,280(sp)
   118d0:	00700693          	li	a3,7
   118d4:	01030313          	addi	t1,t1,16
   118d8:	f0c6d063          	bge	a3,a2,10fd8 <_vfprintf_r+0xa10>
   118dc:	00013583          	ld	a1,0(sp)
   118e0:	11010613          	addi	a2,sp,272
   118e4:	000a8513          	mv	a0,s5
   118e8:	09e13023          	sd	t5,128(sp)
   118ec:	07d13023          	sd	t4,96(sp)
   118f0:	571090ef          	jal	ra,1b660 <__sprint_r>
   118f4:	00050463          	beqz	a0,118fc <_vfprintf_r+0x1334>
   118f8:	f61fe06f          	j	10858 <_vfprintf_r+0x290>
   118fc:	12013783          	ld	a5,288(sp)
   11900:	19010313          	addi	t1,sp,400
   11904:	08013f03          	ld	t5,128(sp)
   11908:	06013e83          	ld	t4,96(sp)
   1190c:	eccff06f          	j	10fd8 <_vfprintf_r+0xa10>
   11910:	00013583          	ld	a1,0(sp)
   11914:	11010613          	addi	a2,sp,272
   11918:	000a8513          	mv	a0,s5
   1191c:	07e13023          	sd	t5,96(sp)
   11920:	541090ef          	jal	ra,1b660 <__sprint_r>
   11924:	00050463          	beqz	a0,1192c <_vfprintf_r+0x1364>
   11928:	f31fe06f          	j	10858 <_vfprintf_r+0x290>
   1192c:	12013783          	ld	a5,288(sp)
   11930:	19010313          	addi	t1,sp,400
   11934:	06013f03          	ld	t5,96(sp)
   11938:	f14ff06f          	j	1104c <_vfprintf_r+0xa84>
   1193c:	11812703          	lw	a4,280(sp)
   11940:	00010b17          	auipc	s6,0x10
   11944:	a50b0b13          	addi	s6,s6,-1456 # 21390 <blanks.4538>
   11948:	068d5263          	bge	s10,s0,119ac <_vfprintf_r+0x13e4>
   1194c:	00700493          	li	s1,7
   11950:	00013b83          	ld	s7,0(sp)
   11954:	00c0006f          	j	11960 <_vfprintf_r+0x1398>
   11958:	ff04041b          	addiw	s0,s0,-16
   1195c:	048d5863          	bge	s10,s0,119ac <_vfprintf_r+0x13e4>
   11960:	0017071b          	addiw	a4,a4,1
   11964:	01078793          	addi	a5,a5,16
   11968:	01633023          	sd	s6,0(t1)
   1196c:	01a33423          	sd	s10,8(t1)
   11970:	12f13023          	sd	a5,288(sp)
   11974:	10e12c23          	sw	a4,280(sp)
   11978:	01030313          	addi	t1,t1,16
   1197c:	fce4dee3          	bge	s1,a4,11958 <_vfprintf_r+0x1390>
   11980:	11010613          	addi	a2,sp,272
   11984:	000b8593          	mv	a1,s7
   11988:	000a8513          	mv	a0,s5
   1198c:	4d5090ef          	jal	ra,1b660 <__sprint_r>
   11990:	00050463          	beqz	a0,11998 <_vfprintf_r+0x13d0>
   11994:	ec5fe06f          	j	10858 <_vfprintf_r+0x290>
   11998:	ff04041b          	addiw	s0,s0,-16
   1199c:	12013783          	ld	a5,288(sp)
   119a0:	11812703          	lw	a4,280(sp)
   119a4:	19010313          	addi	t1,sp,400
   119a8:	fa8d4ce3          	blt	s10,s0,11960 <_vfprintf_r+0x1398>
   119ac:	0017069b          	addiw	a3,a4,1
   119b0:	008787b3          	add	a5,a5,s0
   119b4:	01633023          	sd	s6,0(t1)
   119b8:	00833423          	sd	s0,8(t1)
   119bc:	12f13023          	sd	a5,288(sp)
   119c0:	10d12c23          	sw	a3,280(sp)
   119c4:	00700713          	li	a4,7
   119c8:	ecd75a63          	bge	a4,a3,1109c <_vfprintf_r+0xad4>
   119cc:	00013583          	ld	a1,0(sp)
   119d0:	11010613          	addi	a2,sp,272
   119d4:	000a8513          	mv	a0,s5
   119d8:	489090ef          	jal	ra,1b660 <__sprint_r>
   119dc:	00050463          	beqz	a0,119e4 <_vfprintf_r+0x141c>
   119e0:	e79fe06f          	j	10858 <_vfprintf_r+0x290>
   119e4:	12013783          	ld	a5,288(sp)
   119e8:	eb4ff06f          	j	1109c <_vfprintf_r+0xad4>
   119ec:	00100713          	li	a4,1
   119f0:	46e782e3          	beq	a5,a4,12654 <_vfprintf_r+0x208c>
   119f4:	00200713          	li	a4,2
   119f8:	00048a13          	mv	s4,s1
   119fc:	d2e79663          	bne	a5,a4,10f28 <_vfprintf_r+0x960>
   11a00:	05013703          	ld	a4,80(sp)
   11a04:	18c10c93          	addi	s9,sp,396
   11a08:	000c8d93          	mv	s11,s9
   11a0c:	00fb7793          	andi	a5,s6,15
   11a10:	00f707b3          	add	a5,a4,a5
   11a14:	0007c783          	lbu	a5,0(a5)
   11a18:	fffd8d93          	addi	s11,s11,-1
   11a1c:	004b5b13          	srli	s6,s6,0x4
   11a20:	00fd8023          	sb	a5,0(s11)
   11a24:	fe0b14e3          	bnez	s6,11a0c <_vfprintf_r+0x1444>
   11a28:	41bc8cbb          	subw	s9,s9,s11
   11a2c:	000a0493          	mv	s1,s4
   11a30:	f19fe06f          	j	10948 <_vfprintf_r+0x380>
   11a34:	0e812583          	lw	a1,232(sp)
   11a38:	3eb05e63          	blez	a1,11e34 <_vfprintf_r+0x186c>
   11a3c:	02813703          	ld	a4,40(sp)
   11a40:	02013683          	ld	a3,32(sp)
   11a44:	0007041b          	sext.w	s0,a4
   11a48:	24e6ce63          	blt	a3,a4,11ca4 <_vfprintf_r+0x16dc>
   11a4c:	02805663          	blez	s0,11a78 <_vfprintf_r+0x14b0>
   11a50:	11812683          	lw	a3,280(sp)
   11a54:	008787b3          	add	a5,a5,s0
   11a58:	01b33023          	sd	s11,0(t1)
   11a5c:	0016861b          	addiw	a2,a3,1
   11a60:	00833423          	sd	s0,8(t1)
   11a64:	12f13023          	sd	a5,288(sp)
   11a68:	10c12c23          	sw	a2,280(sp)
   11a6c:	00700693          	li	a3,7
   11a70:	01030313          	addi	t1,t1,16
   11a74:	08c6c0e3          	blt	a3,a2,122f4 <_vfprintf_r+0x1d2c>
   11a78:	fff44693          	not	a3,s0
   11a7c:	02013703          	ld	a4,32(sp)
   11a80:	43f6d693          	srai	a3,a3,0x3f
   11a84:	00d47433          	and	s0,s0,a3
   11a88:	4087043b          	subw	s0,a4,s0
   11a8c:	2e804663          	bgtz	s0,11d78 <_vfprintf_r+0x17b0>
   11a90:	02013703          	ld	a4,32(sp)
   11a94:	4004f693          	andi	a3,s1,1024
   11a98:	00ed8bb3          	add	s7,s11,a4
   11a9c:	64069c63          	bnez	a3,120f4 <_vfprintf_r+0x1b2c>
   11aa0:	0e812403          	lw	s0,232(sp)
   11aa4:	02813703          	ld	a4,40(sp)
   11aa8:	00e44663          	blt	s0,a4,11ab4 <_vfprintf_r+0x14ec>
   11aac:	0014f693          	andi	a3,s1,1
   11ab0:	0a0686e3          	beqz	a3,1235c <_vfprintf_r+0x1d94>
   11ab4:	05813683          	ld	a3,88(sp)
   11ab8:	04813703          	ld	a4,72(sp)
   11abc:	01030313          	addi	t1,t1,16
   11ac0:	fed33823          	sd	a3,-16(t1)
   11ac4:	11812683          	lw	a3,280(sp)
   11ac8:	00e787b3          	add	a5,a5,a4
   11acc:	fee33c23          	sd	a4,-8(t1)
   11ad0:	0016861b          	addiw	a2,a3,1
   11ad4:	12f13023          	sd	a5,288(sp)
   11ad8:	10c12c23          	sw	a2,280(sp)
   11adc:	00700693          	li	a3,7
   11ae0:	52c6c0e3          	blt	a3,a2,12800 <_vfprintf_r+0x2238>
   11ae4:	02813703          	ld	a4,40(sp)
   11ae8:	4087063b          	subw	a2,a4,s0
   11aec:	00ed8733          	add	a4,s11,a4
   11af0:	4177073b          	subw	a4,a4,s7
   11af4:	00060413          	mv	s0,a2
   11af8:	00c75463          	bge	a4,a2,11b00 <_vfprintf_r+0x1538>
   11afc:	0007041b          	sext.w	s0,a4
   11b00:	02805663          	blez	s0,11b2c <_vfprintf_r+0x1564>
   11b04:	11812703          	lw	a4,280(sp)
   11b08:	008787b3          	add	a5,a5,s0
   11b0c:	01733023          	sd	s7,0(t1)
   11b10:	0017069b          	addiw	a3,a4,1
   11b14:	00833423          	sd	s0,8(t1)
   11b18:	12f13023          	sd	a5,288(sp)
   11b1c:	10d12c23          	sw	a3,280(sp)
   11b20:	00700713          	li	a4,7
   11b24:	01030313          	addi	t1,t1,16
   11b28:	56d748e3          	blt	a4,a3,12898 <_vfprintf_r+0x22d0>
   11b2c:	fff44713          	not	a4,s0
   11b30:	43f75713          	srai	a4,a4,0x3f
   11b34:	00e47433          	and	s0,s0,a4
   11b38:	4086043b          	subw	s0,a2,s0
   11b3c:	d4805863          	blez	s0,1108c <_vfprintf_r+0xac4>
   11b40:	11812703          	lw	a4,280(sp)
   11b44:	408d5863          	bge	s10,s0,11f54 <_vfprintf_r+0x198c>
   11b48:	00700c93          	li	s9,7
   11b4c:	00013b03          	ld	s6,0(sp)
   11b50:	00c0006f          	j	11b5c <_vfprintf_r+0x1594>
   11b54:	ff04041b          	addiw	s0,s0,-16
   11b58:	3e8d5e63          	bge	s10,s0,11f54 <_vfprintf_r+0x198c>
   11b5c:	0017071b          	addiw	a4,a4,1
   11b60:	01078793          	addi	a5,a5,16
   11b64:	01833023          	sd	s8,0(t1)
   11b68:	01a33423          	sd	s10,8(t1)
   11b6c:	12f13023          	sd	a5,288(sp)
   11b70:	10e12c23          	sw	a4,280(sp)
   11b74:	01030313          	addi	t1,t1,16
   11b78:	fcecdee3          	bge	s9,a4,11b54 <_vfprintf_r+0x158c>
   11b7c:	11010613          	addi	a2,sp,272
   11b80:	000b0593          	mv	a1,s6
   11b84:	000a8513          	mv	a0,s5
   11b88:	2d9090ef          	jal	ra,1b660 <__sprint_r>
   11b8c:	00050463          	beqz	a0,11b94 <_vfprintf_r+0x15cc>
   11b90:	cc9fe06f          	j	10858 <_vfprintf_r+0x290>
   11b94:	12013783          	ld	a5,288(sp)
   11b98:	11812703          	lw	a4,280(sp)
   11b9c:	19010313          	addi	t1,sp,400
   11ba0:	fb5ff06f          	j	11b54 <_vfprintf_r+0x158c>
   11ba4:	0014f513          	andi	a0,s1,1
   11ba8:	b60514e3          	bnez	a0,11710 <_vfprintf_r+0x1148>
   11bac:	00c33423          	sd	a2,8(t1)
   11bb0:	13913023          	sd	s9,288(sp)
   11bb4:	10f12c23          	sw	a5,280(sp)
   11bb8:	00700713          	li	a4,7
   11bbc:	10f74c63          	blt	a4,a5,11cd4 <_vfprintf_r+0x170c>
   11bc0:	00258b1b          	addiw	s6,a1,2
   11bc4:	02030313          	addi	t1,t1,32
   11bc8:	c05ff06f          	j	117cc <_vfprintf_r+0x1204>
   11bcc:	c17050e3          	blez	s7,117cc <_vfprintf_r+0x1204>
   11bd0:	017d4463          	blt	s10,s7,11bd8 <_vfprintf_r+0x1610>
   11bd4:	0bc0106f          	j	12c90 <_vfprintf_r+0x26c8>
   11bd8:	00700b13          	li	s6,7
   11bdc:	00013d83          	ld	s11,0(sp)
   11be0:	0100006f          	j	11bf0 <_vfprintf_r+0x1628>
   11be4:	ff0b8b9b          	addiw	s7,s7,-16
   11be8:	0d7d5463          	bge	s10,s7,11cb0 <_vfprintf_r+0x16e8>
   11bec:	0017889b          	addiw	a7,a5,1
   11bf0:	010c8c93          	addi	s9,s9,16
   11bf4:	01843023          	sd	s8,0(s0)
   11bf8:	01a43423          	sd	s10,8(s0)
   11bfc:	13913023          	sd	s9,288(sp)
   11c00:	0008879b          	sext.w	a5,a7
   11c04:	11112c23          	sw	a7,280(sp)
   11c08:	01040413          	addi	s0,s0,16
   11c0c:	fcfb5ce3          	bge	s6,a5,11be4 <_vfprintf_r+0x161c>
   11c10:	11010613          	addi	a2,sp,272
   11c14:	000d8593          	mv	a1,s11
   11c18:	000a8513          	mv	a0,s5
   11c1c:	245090ef          	jal	ra,1b660 <__sprint_r>
   11c20:	00050463          	beqz	a0,11c28 <_vfprintf_r+0x1660>
   11c24:	c35fe06f          	j	10858 <_vfprintf_r+0x290>
   11c28:	12013c83          	ld	s9,288(sp)
   11c2c:	11812783          	lw	a5,280(sp)
   11c30:	19010413          	addi	s0,sp,400
   11c34:	fb1ff06f          	j	11be4 <_vfprintf_r+0x161c>
   11c38:	03000793          	li	a5,48
   11c3c:	18f105a3          	sb	a5,395(sp)
   11c40:	18b10d93          	addi	s11,sp,395
   11c44:	d05fe06f          	j	10948 <_vfprintf_r+0x380>
   11c48:	00813783          	ld	a5,8(sp)
   11c4c:	00090d93          	mv	s11,s2
   11c50:	00f73023          	sd	a5,0(a4)
   11c54:	c84ff06f          	j	110d8 <_vfprintf_r+0xb10>
   11c58:	00094403          	lbu	s0,0(s2)
   11c5c:	b29fe06f          	j	10784 <_vfprintf_r+0x1bc>
   11c60:	01013783          	ld	a5,16(sp)
   11c64:	0007bb03          	ld	s6,0(a5)
   11c68:	c7dfe06f          	j	108e4 <_vfprintf_r+0x31c>
   11c6c:	00048a13          	mv	s4,s1
   11c70:	8b8ff06f          	j	10d28 <_vfprintf_r+0x760>
   11c74:	00048a13          	mv	s4,s1
   11c78:	a74ff06f          	j	10eec <_vfprintf_r+0x924>
   11c7c:	01013783          	ld	a5,16(sp)
   11c80:	01913c23          	sd	s9,24(sp)
   11c84:	0007b503          	ld	a0,0(a5)
   11c88:	00878793          	addi	a5,a5,8
   11c8c:	00f13823          	sd	a5,16(sp)
   11c90:	2440f0ef          	jal	ra,20ed4 <__extenddftf2>
   11c94:	10a13023          	sd	a0,256(sp)
   11c98:	10b13423          	sd	a1,264(sp)
   11c9c:	01813303          	ld	t1,24(sp)
   11ca0:	dd9fe06f          	j	10a78 <_vfprintf_r+0x4b0>
   11ca4:	0006841b          	sext.w	s0,a3
   11ca8:	da8044e3          	bgtz	s0,11a50 <_vfprintf_r+0x1488>
   11cac:	dcdff06f          	j	11a78 <_vfprintf_r+0x14b0>
   11cb0:	00178b1b          	addiw	s6,a5,1
   11cb4:	01040793          	addi	a5,s0,16
   11cb8:	017c8cb3          	add	s9,s9,s7
   11cbc:	01843023          	sd	s8,0(s0)
   11cc0:	01743423          	sd	s7,8(s0)
   11cc4:	13913023          	sd	s9,288(sp)
   11cc8:	11612c23          	sw	s6,280(sp)
   11ccc:	00700713          	li	a4,7
   11cd0:	5f675063          	bge	a4,s6,122b0 <_vfprintf_r+0x1ce8>
   11cd4:	00013583          	ld	a1,0(sp)
   11cd8:	11010613          	addi	a2,sp,272
   11cdc:	000a8513          	mv	a0,s5
   11ce0:	181090ef          	jal	ra,1b660 <__sprint_r>
   11ce4:	00050463          	beqz	a0,11cec <_vfprintf_r+0x1724>
   11ce8:	b71fe06f          	j	10858 <_vfprintf_r+0x290>
   11cec:	11812583          	lw	a1,280(sp)
   11cf0:	12013c83          	ld	s9,288(sp)
   11cf4:	1a010313          	addi	t1,sp,416
   11cf8:	00158b1b          	addiw	s6,a1,1
   11cfc:	19010413          	addi	s0,sp,400
   11d00:	acdff06f          	j	117cc <_vfprintf_r+0x1204>
   11d04:	0204e493          	ori	s1,s1,32
   11d08:	00194403          	lbu	s0,1(s2)
   11d0c:	0004849b          	sext.w	s1,s1
   11d10:	00190913          	addi	s2,s2,1
   11d14:	a71fe06f          	j	10784 <_vfprintf_r+0x1bc>
   11d18:	2004e493          	ori	s1,s1,512
   11d1c:	00194403          	lbu	s0,1(s2)
   11d20:	0004849b          	sext.w	s1,s1
   11d24:	00190913          	addi	s2,s2,1
   11d28:	a5dfe06f          	j	10784 <_vfprintf_r+0x1bc>
   11d2c:	00013583          	ld	a1,0(sp)
   11d30:	11010613          	addi	a2,sp,272
   11d34:	000a8513          	mv	a0,s5
   11d38:	129090ef          	jal	ra,1b660 <__sprint_r>
   11d3c:	00050463          	beqz	a0,11d44 <_vfprintf_r+0x177c>
   11d40:	b19fe06f          	j	10858 <_vfprintf_r+0x290>
   11d44:	12013783          	ld	a5,288(sp)
   11d48:	19010313          	addi	t1,sp,400
   11d4c:	f78ff06f          	j	114c4 <_vfprintf_r+0xefc>
   11d50:	000b871b          	sext.w	a4,s7
   11d54:	00600793          	li	a5,6
   11d58:	000b8e13          	mv	t3,s7
   11d5c:	5ae7ee63          	bltu	a5,a4,12318 <_vfprintf_r+0x1d50>
   11d60:	000e0c9b          	sext.w	s9,t3
   11d64:	000c8a13          	mv	s4,s9
   11d68:	01613823          	sd	s6,16(sp)
   11d6c:	0000fd97          	auipc	s11,0xf
   11d70:	6c4d8d93          	addi	s11,s11,1732 # 21430 <zeroes.4539+0x90>
   11d74:	a2cff06f          	j	10fa0 <_vfprintf_r+0x9d8>
   11d78:	11812683          	lw	a3,280(sp)
   11d7c:	328d5863          	bge	s10,s0,120ac <_vfprintf_r+0x1ae4>
   11d80:	00700c93          	li	s9,7
   11d84:	00013b03          	ld	s6,0(sp)
   11d88:	00c0006f          	j	11d94 <_vfprintf_r+0x17cc>
   11d8c:	ff04041b          	addiw	s0,s0,-16
   11d90:	308d5e63          	bge	s10,s0,120ac <_vfprintf_r+0x1ae4>
   11d94:	0016869b          	addiw	a3,a3,1
   11d98:	01078793          	addi	a5,a5,16
   11d9c:	01833023          	sd	s8,0(t1)
   11da0:	01a33423          	sd	s10,8(t1)
   11da4:	12f13023          	sd	a5,288(sp)
   11da8:	10d12c23          	sw	a3,280(sp)
   11dac:	01030313          	addi	t1,t1,16
   11db0:	fcdcdee3          	bge	s9,a3,11d8c <_vfprintf_r+0x17c4>
   11db4:	11010613          	addi	a2,sp,272
   11db8:	000b0593          	mv	a1,s6
   11dbc:	000a8513          	mv	a0,s5
   11dc0:	0a1090ef          	jal	ra,1b660 <__sprint_r>
   11dc4:	00050463          	beqz	a0,11dcc <_vfprintf_r+0x1804>
   11dc8:	a91fe06f          	j	10858 <_vfprintf_r+0x290>
   11dcc:	12013783          	ld	a5,288(sp)
   11dd0:	11812683          	lw	a3,280(sp)
   11dd4:	19010313          	addi	t1,sp,400
   11dd8:	fb5ff06f          	j	11d8c <_vfprintf_r+0x17c4>
   11ddc:	000d8493          	mv	s1,s11
   11de0:	981fe06f          	j	10760 <_vfprintf_r+0x198>
   11de4:	00013583          	ld	a1,0(sp)
   11de8:	11010613          	addi	a2,sp,272
   11dec:	000a8513          	mv	a0,s5
   11df0:	071090ef          	jal	ra,1b660 <__sprint_r>
   11df4:	00050463          	beqz	a0,11dfc <_vfprintf_r+0x1834>
   11df8:	a61fe06f          	j	10858 <_vfprintf_r+0x290>
   11dfc:	12013c83          	ld	s9,288(sp)
   11e00:	11812783          	lw	a5,280(sp)
   11e04:	19010413          	addi	s0,sp,400
   11e08:	921ff06f          	j	11728 <_vfprintf_r+0x1160>
   11e0c:	00013583          	ld	a1,0(sp)
   11e10:	11010613          	addi	a2,sp,272
   11e14:	000a8513          	mv	a0,s5
   11e18:	049090ef          	jal	ra,1b660 <__sprint_r>
   11e1c:	00050463          	beqz	a0,11e24 <_vfprintf_r+0x185c>
   11e20:	a39fe06f          	j	10858 <_vfprintf_r+0x290>
   11e24:	12013c83          	ld	s9,288(sp)
   11e28:	11812783          	lw	a5,280(sp)
   11e2c:	19010413          	addi	s0,sp,400
   11e30:	929ff06f          	j	11758 <_vfprintf_r+0x1190>
   11e34:	11812683          	lw	a3,280(sp)
   11e38:	0000f617          	auipc	a2,0xf
   11e3c:	60060613          	addi	a2,a2,1536 # 21438 <zeroes.4539+0x98>
   11e40:	00c33023          	sd	a2,0(t1)
   11e44:	0016869b          	addiw	a3,a3,1
   11e48:	00100613          	li	a2,1
   11e4c:	00178793          	addi	a5,a5,1
   11e50:	00c33423          	sd	a2,8(t1)
   11e54:	10d12c23          	sw	a3,280(sp)
   11e58:	0006861b          	sext.w	a2,a3
   11e5c:	12f13023          	sd	a5,288(sp)
   11e60:	00700693          	li	a3,7
   11e64:	01030313          	addi	t1,t1,16
   11e68:	44c6cc63          	blt	a3,a2,122c0 <_vfprintf_r+0x1cf8>
   11e6c:	ac059063          	bnez	a1,1112c <_vfprintf_r+0xb64>
   11e70:	02813703          	ld	a4,40(sp)
   11e74:	0014f693          	andi	a3,s1,1
   11e78:	00d766b3          	or	a3,a4,a3
   11e7c:	a0068863          	beqz	a3,1108c <_vfprintf_r+0xac4>
   11e80:	11812603          	lw	a2,280(sp)
   11e84:	04813703          	ld	a4,72(sp)
   11e88:	05813683          	ld	a3,88(sp)
   11e8c:	00f707b3          	add	a5,a4,a5
   11e90:	00d33023          	sd	a3,0(t1)
   11e94:	0016069b          	addiw	a3,a2,1
   11e98:	00e33423          	sd	a4,8(t1)
   11e9c:	12f13023          	sd	a5,288(sp)
   11ea0:	10d12c23          	sw	a3,280(sp)
   11ea4:	00700613          	li	a2,7
   11ea8:	aad64a63          	blt	a2,a3,1115c <_vfprintf_r+0xb94>
   11eac:	01030313          	addi	t1,t1,16
   11eb0:	ad8ff06f          	j	11188 <_vfprintf_r+0xbc0>
   11eb4:	400a7493          	andi	s1,s4,1024
   11eb8:	01213c23          	sd	s2,24(sp)
   11ebc:	07813903          	ld	s2,120(sp)
   11ec0:	18c10c93          	addi	s9,sp,396
   11ec4:	0004849b          	sext.w	s1,s1
   11ec8:	00000793          	li	a5,0
   11ecc:	000c8d93          	mv	s11,s9
   11ed0:	02813023          	sd	s0,32(sp)
   11ed4:	03313c23          	sd	s3,56(sp)
   11ed8:	000c8413          	mv	s0,s9
   11edc:	000b0993          	mv	s3,s6
   11ee0:	000a8c93          	mv	s9,s5
   11ee4:	00048b13          	mv	s6,s1
   11ee8:	00030a93          	mv	s5,t1
   11eec:	00078493          	mv	s1,a5
   11ef0:	00a00593          	li	a1,10
   11ef4:	00098513          	mv	a0,s3
   11ef8:	bb4fe0ef          	jal	ra,102ac <__umoddi3>
   11efc:	0305051b          	addiw	a0,a0,48
   11f00:	fea40fa3          	sb	a0,-1(s0)
   11f04:	0014849b          	addiw	s1,s1,1
   11f08:	fff40413          	addi	s0,s0,-1
   11f0c:	000b0663          	beqz	s6,11f18 <_vfprintf_r+0x1950>
   11f10:	00094683          	lbu	a3,0(s2)
   11f14:	cad48a63          	beq	s1,a3,113c8 <_vfprintf_r+0xe00>
   11f18:	00a00593          	li	a1,10
   11f1c:	00098513          	mv	a0,s3
   11f20:	b44fe0ef          	jal	ra,10264 <__udivdi3>
   11f24:	00900793          	li	a5,9
   11f28:	cb37f863          	bgeu	a5,s3,113d8 <_vfprintf_r+0xe10>
   11f2c:	00050993          	mv	s3,a0
   11f30:	fc1ff06f          	j	11ef0 <_vfprintf_r+0x1928>
   11f34:	00013583          	ld	a1,0(sp)
   11f38:	11010613          	addi	a2,sp,272
   11f3c:	000a8513          	mv	a0,s5
   11f40:	720090ef          	jal	ra,1b660 <__sprint_r>
   11f44:	00050463          	beqz	a0,11f4c <_vfprintf_r+0x1984>
   11f48:	911fe06f          	j	10858 <_vfprintf_r+0x290>
   11f4c:	19010313          	addi	t1,sp,400
   11f50:	d20ff06f          	j	11470 <_vfprintf_r+0xea8>
   11f54:	0017069b          	addiw	a3,a4,1
   11f58:	01833023          	sd	s8,0(t1)
   11f5c:	00833423          	sd	s0,8(t1)
   11f60:	008787b3          	add	a5,a5,s0
   11f64:	12f13023          	sd	a5,288(sp)
   11f68:	10d12c23          	sw	a3,280(sp)
   11f6c:	00700713          	li	a4,7
   11f70:	90d75c63          	bge	a4,a3,11088 <_vfprintf_r+0xac0>
   11f74:	a38ff06f          	j	111ac <_vfprintf_r+0xbe4>
   11f78:	10013503          	ld	a0,256(sp)
   11f7c:	10813583          	ld	a1,264(sp)
   11f80:	00000613          	li	a2,0
   11f84:	00000693          	li	a3,0
   11f88:	6850d0ef          	jal	ra,1fe0c <__letf2>
   11f8c:	01813303          	ld	t1,24(sp)
   11f90:	08054ce3          	bltz	a0,12828 <_vfprintf_r+0x2260>
   11f94:	0df14783          	lbu	a5,223(sp)
   11f98:	04700693          	li	a3,71
   11f9c:	0000fd97          	auipc	s11,0xf
   11fa0:	444d8d93          	addi	s11,s11,1092 # 213e0 <zeroes.4539+0x40>
   11fa4:	3486c263          	blt	a3,s0,122e8 <_vfprintf_r+0x1d20>
   11fa8:	f7f4f493          	andi	s1,s1,-129
   11fac:	00013c23          	sd	zero,24(sp)
   11fb0:	04013023          	sd	zero,64(sp)
   11fb4:	02013c23          	sd	zero,56(sp)
   11fb8:	02013023          	sd	zero,32(sp)
   11fbc:	0004849b          	sext.w	s1,s1
   11fc0:	00300a13          	li	s4,3
   11fc4:	00300c93          	li	s9,3
   11fc8:	00000b93          	li	s7,0
   11fcc:	00078463          	beqz	a5,11fd4 <_vfprintf_r+0x1a0c>
   11fd0:	99dfe06f          	j	1096c <_vfprintf_r+0x3a4>
   11fd4:	fe1fe06f          	j	10fb4 <_vfprintf_r+0x9ec>
   11fd8:	000d8513          	mv	a0,s11
   11fdc:	07913023          	sd	s9,96(sp)
   11fe0:	4d1060ef          	jal	ra,18cb0 <strlen>
   11fe4:	00050c9b          	sext.w	s9,a0
   11fe8:	fffcca13          	not	s4,s9
   11fec:	0df14783          	lbu	a5,223(sp)
   11ff0:	43fa5a13          	srai	s4,s4,0x3f
   11ff4:	014cfa33          	and	s4,s9,s4
   11ff8:	01613823          	sd	s6,16(sp)
   11ffc:	00013c23          	sd	zero,24(sp)
   12000:	04013023          	sd	zero,64(sp)
   12004:	02013c23          	sd	zero,56(sp)
   12008:	02013023          	sd	zero,32(sp)
   1200c:	000a0a1b          	sext.w	s4,s4
   12010:	00000b93          	li	s7,0
   12014:	06013303          	ld	t1,96(sp)
   12018:	00078463          	beqz	a5,12020 <_vfprintf_r+0x1a58>
   1201c:	951fe06f          	j	1096c <_vfprintf_r+0x3a4>
   12020:	f95fe06f          	j	10fb4 <_vfprintf_r+0x9ec>
   12024:	2004f793          	andi	a5,s1,512
   12028:	3a078063          	beqz	a5,123c8 <_vfprintf_r+0x1e00>
   1202c:	0ffb7b13          	andi	s6,s6,255
   12030:	00e13823          	sd	a4,16(sp)
   12034:	db1fe06f          	j	10de4 <_vfprintf_r+0x81c>
   12038:	2004f793          	andi	a5,s1,512
   1203c:	36078a63          	beqz	a5,123b0 <_vfprintf_r+0x1de8>
   12040:	0ffb7b13          	andi	s6,s6,255
   12044:	00e13823          	sd	a4,16(sp)
   12048:	00048a13          	mv	s4,s1
   1204c:	00100793          	li	a5,1
   12050:	8c5fe06f          	j	10914 <_vfprintf_r+0x34c>
   12054:	2004f793          	andi	a5,s1,512
   12058:	34078063          	beqz	a5,12398 <_vfprintf_r+0x1dd0>
   1205c:	01013783          	ld	a5,16(sp)
   12060:	00048a13          	mv	s4,s1
   12064:	00e13823          	sd	a4,16(sp)
   12068:	00078b03          	lb	s6,0(a5)
   1206c:	000b0793          	mv	a5,s6
   12070:	dd1fe06f          	j	10e40 <_vfprintf_r+0x878>
   12074:	2004f793          	andi	a5,s1,512
   12078:	30078a63          	beqz	a5,1238c <_vfprintf_r+0x1dc4>
   1207c:	0ffb7b13          	andi	s6,s6,255
   12080:	865fe06f          	j	108e4 <_vfprintf_r+0x31c>
   12084:	10813783          	ld	a5,264(sp)
   12088:	3407c863          	bltz	a5,123d8 <_vfprintf_r+0x1e10>
   1208c:	0df14783          	lbu	a5,223(sp)
   12090:	04700693          	li	a3,71
   12094:	0000fd97          	auipc	s11,0xf
   12098:	35cd8d93          	addi	s11,s11,860 # 213f0 <zeroes.4539+0x50>
   1209c:	f086d6e3          	bge	a3,s0,11fa8 <_vfprintf_r+0x19e0>
   120a0:	0000fd97          	auipc	s11,0xf
   120a4:	358d8d93          	addi	s11,s11,856 # 213f8 <zeroes.4539+0x58>
   120a8:	f01ff06f          	j	11fa8 <_vfprintf_r+0x19e0>
   120ac:	0016861b          	addiw	a2,a3,1
   120b0:	008787b3          	add	a5,a5,s0
   120b4:	01833023          	sd	s8,0(t1)
   120b8:	00833423          	sd	s0,8(t1)
   120bc:	12f13023          	sd	a5,288(sp)
   120c0:	10c12c23          	sw	a2,280(sp)
   120c4:	00700693          	li	a3,7
   120c8:	01030313          	addi	t1,t1,16
   120cc:	9cc6d2e3          	bge	a3,a2,11a90 <_vfprintf_r+0x14c8>
   120d0:	00013583          	ld	a1,0(sp)
   120d4:	11010613          	addi	a2,sp,272
   120d8:	000a8513          	mv	a0,s5
   120dc:	584090ef          	jal	ra,1b660 <__sprint_r>
   120e0:	00050463          	beqz	a0,120e8 <_vfprintf_r+0x1b20>
   120e4:	f74fe06f          	j	10858 <_vfprintf_r+0x290>
   120e8:	12013783          	ld	a5,288(sp)
   120ec:	19010313          	addi	t1,sp,400
   120f0:	9a1ff06f          	j	11a90 <_vfprintf_r+0x14c8>
   120f4:	02813703          	ld	a4,40(sp)
   120f8:	03813c83          	ld	s9,56(sp)
   120fc:	03213023          	sd	s2,32(sp)
   12100:	06913023          	sd	s1,96(sp)
   12104:	09313023          	sd	s3,128(sp)
   12108:	04013903          	ld	s2,64(sp)
   1210c:	03413c23          	sd	s4,56(sp)
   12110:	05b13023          	sd	s11,64(sp)
   12114:	00700b13          	li	s6,7
   12118:	00ed8433          	add	s0,s11,a4
   1211c:	08813983          	ld	s3,136(sp)
   12120:	07813483          	ld	s1,120(sp)
   12124:	00013a03          	ld	s4,0(sp)
   12128:	0a0c8063          	beqz	s9,121c8 <_vfprintf_r+0x1c00>
   1212c:	0a091063          	bnez	s2,121cc <_vfprintf_r+0x1c04>
   12130:	fff48493          	addi	s1,s1,-1
   12134:	fffc8c9b          	addiw	s9,s9,-1
   12138:	07013703          	ld	a4,112(sp)
   1213c:	013787b3          	add	a5,a5,s3
   12140:	01333423          	sd	s3,8(t1)
   12144:	00e33023          	sd	a4,0(t1)
   12148:	11812703          	lw	a4,280(sp)
   1214c:	12f13023          	sd	a5,288(sp)
   12150:	01030313          	addi	t1,t1,16
   12154:	0017069b          	addiw	a3,a4,1
   12158:	10d12c23          	sw	a3,280(sp)
   1215c:	10db4263          	blt	s6,a3,12260 <_vfprintf_r+0x1c98>
   12160:	0004c603          	lbu	a2,0(s1)
   12164:	417405bb          	subw	a1,s0,s7
   12168:	0006071b          	sext.w	a4,a2
   1216c:	00070693          	mv	a3,a4
   12170:	00e5d463          	bge	a1,a4,12178 <_vfprintf_r+0x1bb0>
   12174:	00058693          	mv	a3,a1
   12178:	00068d9b          	sext.w	s11,a3
   1217c:	03b05863          	blez	s11,121ac <_vfprintf_r+0x1be4>
   12180:	11812703          	lw	a4,280(sp)
   12184:	01b787b3          	add	a5,a5,s11
   12188:	01733023          	sd	s7,0(t1)
   1218c:	0017061b          	addiw	a2,a4,1
   12190:	01b33423          	sd	s11,8(t1)
   12194:	12f13023          	sd	a5,288(sp)
   12198:	10c12c23          	sw	a2,280(sp)
   1219c:	0ecb4463          	blt	s6,a2,12284 <_vfprintf_r+0x1cbc>
   121a0:	0004c603          	lbu	a2,0(s1)
   121a4:	01030313          	addi	t1,t1,16
   121a8:	0006071b          	sext.w	a4,a2
   121ac:	fffdc593          	not	a1,s11
   121b0:	43f5d593          	srai	a1,a1,0x3f
   121b4:	00bdf6b3          	and	a3,s11,a1
   121b8:	40d70dbb          	subw	s11,a4,a3
   121bc:	01b04c63          	bgtz	s11,121d4 <_vfprintf_r+0x1c0c>
   121c0:	00cb8bb3          	add	s7,s7,a2
   121c4:	f60c94e3          	bnez	s9,1212c <_vfprintf_r+0x1b64>
   121c8:	48090a63          	beqz	s2,1265c <_vfprintf_r+0x2094>
   121cc:	fff9091b          	addiw	s2,s2,-1
   121d0:	f69ff06f          	j	12138 <_vfprintf_r+0x1b70>
   121d4:	11812683          	lw	a3,280(sp)
   121d8:	01bd4863          	blt	s10,s11,121e8 <_vfprintf_r+0x1c20>
   121dc:	0580006f          	j	12234 <_vfprintf_r+0x1c6c>
   121e0:	ff0d8d9b          	addiw	s11,s11,-16
   121e4:	05bd5863          	bge	s10,s11,12234 <_vfprintf_r+0x1c6c>
   121e8:	0016869b          	addiw	a3,a3,1
   121ec:	01078793          	addi	a5,a5,16
   121f0:	01833023          	sd	s8,0(t1)
   121f4:	01a33423          	sd	s10,8(t1)
   121f8:	12f13023          	sd	a5,288(sp)
   121fc:	10d12c23          	sw	a3,280(sp)
   12200:	01030313          	addi	t1,t1,16
   12204:	fcdb5ee3          	bge	s6,a3,121e0 <_vfprintf_r+0x1c18>
   12208:	11010613          	addi	a2,sp,272
   1220c:	000a0593          	mv	a1,s4
   12210:	000a8513          	mv	a0,s5
   12214:	44c090ef          	jal	ra,1b660 <__sprint_r>
   12218:	00050463          	beqz	a0,12220 <_vfprintf_r+0x1c58>
   1221c:	e3cfe06f          	j	10858 <_vfprintf_r+0x290>
   12220:	ff0d8d9b          	addiw	s11,s11,-16
   12224:	12013783          	ld	a5,288(sp)
   12228:	11812683          	lw	a3,280(sp)
   1222c:	19010313          	addi	t1,sp,400
   12230:	fbbd4ce3          	blt	s10,s11,121e8 <_vfprintf_r+0x1c20>
   12234:	0016871b          	addiw	a4,a3,1
   12238:	01b787b3          	add	a5,a5,s11
   1223c:	01833023          	sd	s8,0(t1)
   12240:	01b33423          	sd	s11,8(t1)
   12244:	12f13023          	sd	a5,288(sp)
   12248:	10e12c23          	sw	a4,280(sp)
   1224c:	58eb4463          	blt	s6,a4,127d4 <_vfprintf_r+0x220c>
   12250:	0004c603          	lbu	a2,0(s1)
   12254:	01030313          	addi	t1,t1,16
   12258:	00cb8bb3          	add	s7,s7,a2
   1225c:	f69ff06f          	j	121c4 <_vfprintf_r+0x1bfc>
   12260:	11010613          	addi	a2,sp,272
   12264:	000a0593          	mv	a1,s4
   12268:	000a8513          	mv	a0,s5
   1226c:	3f4090ef          	jal	ra,1b660 <__sprint_r>
   12270:	00050463          	beqz	a0,12278 <_vfprintf_r+0x1cb0>
   12274:	de4fe06f          	j	10858 <_vfprintf_r+0x290>
   12278:	12013783          	ld	a5,288(sp)
   1227c:	19010313          	addi	t1,sp,400
   12280:	ee1ff06f          	j	12160 <_vfprintf_r+0x1b98>
   12284:	11010613          	addi	a2,sp,272
   12288:	000a0593          	mv	a1,s4
   1228c:	000a8513          	mv	a0,s5
   12290:	3d0090ef          	jal	ra,1b660 <__sprint_r>
   12294:	00050463          	beqz	a0,1229c <_vfprintf_r+0x1cd4>
   12298:	dc0fe06f          	j	10858 <_vfprintf_r+0x290>
   1229c:	0004c603          	lbu	a2,0(s1)
   122a0:	12013783          	ld	a5,288(sp)
   122a4:	19010313          	addi	t1,sp,400
   122a8:	0006071b          	sext.w	a4,a2
   122ac:	f01ff06f          	j	121ac <_vfprintf_r+0x1be4>
   122b0:	001b0b1b          	addiw	s6,s6,1
   122b4:	01078313          	addi	t1,a5,16
   122b8:	00078413          	mv	s0,a5
   122bc:	d10ff06f          	j	117cc <_vfprintf_r+0x1204>
   122c0:	00013583          	ld	a1,0(sp)
   122c4:	11010613          	addi	a2,sp,272
   122c8:	000a8513          	mv	a0,s5
   122cc:	394090ef          	jal	ra,1b660 <__sprint_r>
   122d0:	00050463          	beqz	a0,122d8 <_vfprintf_r+0x1d10>
   122d4:	d84fe06f          	j	10858 <_vfprintf_r+0x290>
   122d8:	0e812583          	lw	a1,232(sp)
   122dc:	12013783          	ld	a5,288(sp)
   122e0:	19010313          	addi	t1,sp,400
   122e4:	b89ff06f          	j	11e6c <_vfprintf_r+0x18a4>
   122e8:	0000fd97          	auipc	s11,0xf
   122ec:	100d8d93          	addi	s11,s11,256 # 213e8 <zeroes.4539+0x48>
   122f0:	cb9ff06f          	j	11fa8 <_vfprintf_r+0x19e0>
   122f4:	00013583          	ld	a1,0(sp)
   122f8:	11010613          	addi	a2,sp,272
   122fc:	000a8513          	mv	a0,s5
   12300:	360090ef          	jal	ra,1b660 <__sprint_r>
   12304:	00050463          	beqz	a0,1230c <_vfprintf_r+0x1d44>
   12308:	d50fe06f          	j	10858 <_vfprintf_r+0x290>
   1230c:	12013783          	ld	a5,288(sp)
   12310:	19010313          	addi	t1,sp,400
   12314:	f64ff06f          	j	11a78 <_vfprintf_r+0x14b0>
   12318:	00600e13          	li	t3,6
   1231c:	a45ff06f          	j	11d60 <_vfprintf_r+0x1798>
   12320:	08813783          	ld	a5,136(sp)
   12324:	07013583          	ld	a1,112(sp)
   12328:	00000493          	li	s1,0
   1232c:	40f40433          	sub	s0,s0,a5
   12330:	00078613          	mv	a2,a5
   12334:	00040513          	mv	a0,s0
   12338:	249060ef          	jal	ra,18d80 <strncpy>
   1233c:	00194683          	lbu	a3,1(s2)
   12340:	00098513          	mv	a0,s3
   12344:	00a00593          	li	a1,10
   12348:	00d03733          	snez	a4,a3
   1234c:	00e90933          	add	s2,s2,a4
   12350:	f15fd0ef          	jal	ra,10264 <__udivdi3>
   12354:	00050993          	mv	s3,a0
   12358:	b99ff06f          	j	11ef0 <_vfprintf_r+0x1928>
   1235c:	02813683          	ld	a3,40(sp)
   12360:	00dd8733          	add	a4,s11,a3
   12364:	4086863b          	subw	a2,a3,s0
   12368:	4177083b          	subw	a6,a4,s7
   1236c:	0008041b          	sext.w	s0,a6
   12370:	fb065e63          	bge	a2,a6,11b2c <_vfprintf_r+0x1564>
   12374:	0006041b          	sext.w	s0,a2
   12378:	fb4ff06f          	j	11b2c <_vfprintf_r+0x1564>
   1237c:	00813783          	ld	a5,8(sp)
   12380:	00090d93          	mv	s11,s2
   12384:	00f71023          	sh	a5,0(a4)
   12388:	d51fe06f          	j	110d8 <_vfprintf_r+0xb10>
   1238c:	020b1b13          	slli	s6,s6,0x20
   12390:	020b5b13          	srli	s6,s6,0x20
   12394:	d50fe06f          	j	108e4 <_vfprintf_r+0x31c>
   12398:	01013783          	ld	a5,16(sp)
   1239c:	00048a13          	mv	s4,s1
   123a0:	00e13823          	sd	a4,16(sp)
   123a4:	0007ab03          	lw	s6,0(a5)
   123a8:	000b0793          	mv	a5,s6
   123ac:	a95fe06f          	j	10e40 <_vfprintf_r+0x878>
   123b0:	020b1b13          	slli	s6,s6,0x20
   123b4:	020b5b13          	srli	s6,s6,0x20
   123b8:	00e13823          	sd	a4,16(sp)
   123bc:	00048a13          	mv	s4,s1
   123c0:	00100793          	li	a5,1
   123c4:	d50fe06f          	j	10914 <_vfprintf_r+0x34c>
   123c8:	020b1b13          	slli	s6,s6,0x20
   123cc:	020b5b13          	srli	s6,s6,0x20
   123d0:	00e13823          	sd	a4,16(sp)
   123d4:	a11fe06f          	j	10de4 <_vfprintf_r+0x81c>
   123d8:	02d00793          	li	a5,45
   123dc:	0cf10fa3          	sb	a5,223(sp)
   123e0:	cb1ff06f          	j	12090 <_vfprintf_r+0x1ac8>
   123e4:	03000793          	li	a5,48
   123e8:	0ef10023          	sb	a5,224(sp)
   123ec:	05800713          	li	a4,88
   123f0:	0024e793          	ori	a5,s1,2
   123f4:	0007879b          	sext.w	a5,a5
   123f8:	0ee100a3          	sb	a4,225(sp)
   123fc:	06300693          	li	a3,99
   12400:	04f13023          	sd	a5,64(sp)
   12404:	00013c23          	sd	zero,24(sp)
   12408:	12810d93          	addi	s11,sp,296
   1240c:	6776cc63          	blt	a3,s7,12a84 <_vfprintf_r+0x24bc>
   12410:	10813c83          	ld	s9,264(sp)
   12414:	fdf47793          	andi	a5,s0,-33
   12418:	1024e493          	ori	s1,s1,258
   1241c:	02f13c23          	sd	a5,56(sp)
   12420:	06013023          	sd	zero,96(sp)
   12424:	0004849b          	sext.w	s1,s1
   12428:	10013e83          	ld	t4,256(sp)
   1242c:	380cc863          	bltz	s9,127bc <_vfprintf_r+0x21f4>
   12430:	06100793          	li	a5,97
   12434:	76f40e63          	beq	s0,a5,12bb0 <_vfprintf_r+0x25e8>
   12438:	04100793          	li	a5,65
   1243c:	00f40463          	beq	s0,a5,12444 <_vfprintf_r+0x1e7c>
   12440:	ec4fe06f          	j	10b04 <_vfprintf_r+0x53c>
   12444:	000e8513          	mv	a0,t4
   12448:	000c8593          	mv	a1,s9
   1244c:	02613423          	sd	t1,40(sp)
   12450:	3790e0ef          	jal	ra,20fc8 <__trunctfdf2>
   12454:	0e810593          	addi	a1,sp,232
   12458:	340060ef          	jal	ra,18798 <frexp>
   1245c:	2790e0ef          	jal	ra,20ed4 <__extenddftf2>
   12460:	0000f797          	auipc	a5,0xf
   12464:	f7078793          	addi	a5,a5,-144 # 213d0 <zeroes.4539+0x30>
   12468:	0087b683          	ld	a3,8(a5)
   1246c:	00000613          	li	a2,0
   12470:	27d0d0ef          	jal	ra,1feec <__multf3>
   12474:	00000613          	li	a2,0
   12478:	00000693          	li	a3,0
   1247c:	00050c93          	mv	s9,a0
   12480:	02b13023          	sd	a1,32(sp)
   12484:	01d0d0ef          	jal	ra,1fca0 <__eqtf2>
   12488:	02013f03          	ld	t5,32(sp)
   1248c:	02813303          	ld	t1,40(sp)
   12490:	00051663          	bnez	a0,1249c <_vfprintf_r+0x1ed4>
   12494:	00100793          	li	a5,1
   12498:	0ef12423          	sw	a5,232(sp)
   1249c:	0000f797          	auipc	a5,0xf
   124a0:	f7c78793          	addi	a5,a5,-132 # 21418 <zeroes.4539+0x78>
   124a4:	02f13023          	sd	a5,32(sp)
   124a8:	000b869b          	sext.w	a3,s7
   124ac:	02069793          	slli	a5,a3,0x20
   124b0:	0207d793          	srli	a5,a5,0x20
   124b4:	00178793          	addi	a5,a5,1
   124b8:	00fd8633          	add	a2,s11,a5
   124bc:	0000f797          	auipc	a5,0xf
   124c0:	ef478793          	addi	a5,a5,-268 # 213b0 <zeroes.4539+0x10>
   124c4:	0087b783          	ld	a5,8(a5)
   124c8:	00dd86bb          	addw	a3,s11,a3
   124cc:	09213023          	sd	s2,128(sp)
   124d0:	08813823          	sd	s0,144(sp)
   124d4:	0b313023          	sd	s3,160(sp)
   124d8:	0b713423          	sd	s7,168(sp)
   124dc:	0cc13423          	sd	a2,200(sp)
   124e0:	02f13423          	sd	a5,40(sp)
   124e4:	08913c23          	sd	s1,152(sp)
   124e8:	0a613823          	sd	t1,176(sp)
   124ec:	000d8413          	mv	s0,s11
   124f0:	00060913          	mv	s2,a2
   124f4:	0b513c23          	sd	s5,184(sp)
   124f8:	0db13023          	sd	s11,192(sp)
   124fc:	000c8b13          	mv	s6,s9
   12500:	000f0b93          	mv	s7,t5
   12504:	00068993          	mv	s3,a3
   12508:	0180006f          	j	12520 <_vfprintf_r+0x1f58>
   1250c:	00000613          	li	a2,0
   12510:	00000693          	li	a3,0
   12514:	78c0d0ef          	jal	ra,1fca0 <__eqtf2>
   12518:	5a050c63          	beqz	a0,12ad0 <_vfprintf_r+0x2508>
   1251c:	000c8413          	mv	s0,s9
   12520:	02813683          	ld	a3,40(sp)
   12524:	00000613          	li	a2,0
   12528:	000b0513          	mv	a0,s6
   1252c:	000b8593          	mv	a1,s7
   12530:	1bd0d0ef          	jal	ra,1feec <__multf3>
   12534:	00058a93          	mv	s5,a1
   12538:	00050493          	mv	s1,a0
   1253c:	0a10e0ef          	jal	ra,20ddc <__fixtfsi>
   12540:	00050a1b          	sext.w	s4,a0
   12544:	000a0513          	mv	a0,s4
   12548:	0fd0e0ef          	jal	ra,20e44 <__floatsitf>
   1254c:	00058693          	mv	a3,a1
   12550:	00050613          	mv	a2,a0
   12554:	000a8593          	mv	a1,s5
   12558:	00048513          	mv	a0,s1
   1255c:	0b00e0ef          	jal	ra,2060c <__subtf3>
   12560:	02013783          	ld	a5,32(sp)
   12564:	00140c93          	addi	s9,s0,1
   12568:	00050d93          	mv	s11,a0
   1256c:	014787b3          	add	a5,a5,s4
   12570:	0007c683          	lbu	a3,0(a5)
   12574:	00058493          	mv	s1,a1
   12578:	00050b13          	mv	s6,a0
   1257c:	fedc8fa3          	sb	a3,-1(s9)
   12580:	00058b93          	mv	s7,a1
   12584:	41998abb          	subw	s5,s3,s9
   12588:	f92c92e3          	bne	s9,s2,1250c <_vfprintf_r+0x1f44>
   1258c:	08013903          	ld	s2,128(sp)
   12590:	0a013983          	ld	s3,160(sp)
   12594:	08813023          	sd	s0,128(sp)
   12598:	0a813b83          	ld	s7,168(sp)
   1259c:	0b013303          	ld	t1,176(sp)
   125a0:	09013403          	ld	s0,144(sp)
   125a4:	0b813a83          	ld	s5,184(sp)
   125a8:	0c013d83          	ld	s11,192(sp)
   125ac:	09813483          	ld	s1,152(sp)
   125b0:	0c813b03          	ld	s6,200(sp)
   125b4:	fff00793          	li	a5,-1
   125b8:	00050893          	mv	a7,a0
   125bc:	00058813          	mv	a6,a1
   125c0:	02f13423          	sd	a5,40(sp)
   125c4:	0000f697          	auipc	a3,0xf
   125c8:	dfc68693          	addi	a3,a3,-516 # 213c0 <zeroes.4539+0x20>
   125cc:	0086b783          	ld	a5,8(a3)
   125d0:	00000613          	li	a2,0
   125d4:	00088513          	mv	a0,a7
   125d8:	00078693          	mv	a3,a5
   125dc:	00080593          	mv	a1,a6
   125e0:	08613c23          	sd	t1,152(sp)
   125e4:	08f13823          	sd	a5,144(sp)
   125e8:	0b113423          	sd	a7,168(sp)
   125ec:	0b013023          	sd	a6,160(sp)
   125f0:	73c0d0ef          	jal	ra,1fd2c <__getf2>
   125f4:	09813303          	ld	t1,152(sp)
   125f8:	3ea04663          	bgtz	a0,129e4 <_vfprintf_r+0x241c>
   125fc:	0a813883          	ld	a7,168(sp)
   12600:	0a013803          	ld	a6,160(sp)
   12604:	09013683          	ld	a3,144(sp)
   12608:	00000613          	li	a2,0
   1260c:	00088513          	mv	a0,a7
   12610:	00080593          	mv	a1,a6
   12614:	68c0d0ef          	jal	ra,1fca0 <__eqtf2>
   12618:	09813303          	ld	t1,152(sp)
   1261c:	00051663          	bnez	a0,12628 <_vfprintf_r+0x2060>
   12620:	001a7a13          	andi	s4,s4,1
   12624:	3c0a1063          	bnez	s4,129e4 <_vfprintf_r+0x241c>
   12628:	02813783          	ld	a5,40(sp)
   1262c:	03000613          	li	a2,48
   12630:	00178693          	addi	a3,a5,1
   12634:	00db06b3          	add	a3,s6,a3
   12638:	0007c863          	bltz	a5,12648 <_vfprintf_r+0x2080>
   1263c:	001b0b13          	addi	s6,s6,1
   12640:	fecb0fa3          	sb	a2,-1(s6)
   12644:	ff669ce3          	bne	a3,s6,1263c <_vfprintf_r+0x2074>
   12648:	41bb07bb          	subw	a5,s6,s11
   1264c:	02f13423          	sd	a5,40(sp)
   12650:	d38fe06f          	j	10b88 <_vfprintf_r+0x5c0>
   12654:	00048a13          	mv	s4,s1
   12658:	d59fe06f          	j	113b0 <_vfprintf_r+0xde8>
   1265c:	04013d83          	ld	s11,64(sp)
   12660:	02813703          	ld	a4,40(sp)
   12664:	06913c23          	sd	s1,120(sp)
   12668:	02013903          	ld	s2,32(sp)
   1266c:	00ed86b3          	add	a3,s11,a4
   12670:	08013983          	ld	s3,128(sp)
   12674:	06013483          	ld	s1,96(sp)
   12678:	03813a03          	ld	s4,56(sp)
   1267c:	c376f263          	bgeu	a3,s7,11aa0 <_vfprintf_r+0x14d8>
   12680:	00068b93          	mv	s7,a3
   12684:	c1cff06f          	j	11aa0 <_vfprintf_r+0x14d8>
   12688:	02013703          	ld	a4,32(sp)
   1268c:	ffd00793          	li	a5,-3
   12690:	00f74463          	blt	a4,a5,12698 <_vfprintf_r+0x20d0>
   12694:	00ebda63          	bge	s7,a4,126a8 <_vfprintf_r+0x20e0>
   12698:	ffe4041b          	addiw	s0,s0,-2
   1269c:	fdf47793          	andi	a5,s0,-33
   126a0:	02f13c23          	sd	a5,56(sp)
   126a4:	d0cfe06f          	j	10bb0 <_vfprintf_r+0x5e8>
   126a8:	02813783          	ld	a5,40(sp)
   126ac:	02013703          	ld	a4,32(sp)
   126b0:	20f74c63          	blt	a4,a5,128c8 <_vfprintf_r+0x2300>
   126b4:	04013783          	ld	a5,64(sp)
   126b8:	00070c93          	mv	s9,a4
   126bc:	0017f793          	andi	a5,a5,1
   126c0:	00078663          	beqz	a5,126cc <_vfprintf_r+0x2104>
   126c4:	04813783          	ld	a5,72(sp)
   126c8:	00e78cbb          	addw	s9,a5,a4
   126cc:	04013783          	ld	a5,64(sp)
   126d0:	4007f793          	andi	a5,a5,1024
   126d4:	00078663          	beqz	a5,126e0 <_vfprintf_r+0x2118>
   126d8:	02013783          	ld	a5,32(sp)
   126dc:	42f04c63          	bgtz	a5,12b14 <_vfprintf_r+0x254c>
   126e0:	fffcca13          	not	s4,s9
   126e4:	43fa5a13          	srai	s4,s4,0x3f
   126e8:	014cfa33          	and	s4,s9,s4
   126ec:	000a0a1b          	sext.w	s4,s4
   126f0:	06700413          	li	s0,103
   126f4:	04013023          	sd	zero,64(sp)
   126f8:	02013c23          	sd	zero,56(sp)
   126fc:	df8fe06f          	j	10cf4 <_vfprintf_r+0x72c>
   12700:	0df14783          	lbu	a5,223(sp)
   12704:	00000b93          	li	s7,0
   12708:	00078463          	beqz	a5,12710 <_vfprintf_r+0x2148>
   1270c:	a60fe06f          	j	1096c <_vfprintf_r+0x3a4>
   12710:	8a5fe06f          	j	10fb4 <_vfprintf_r+0x9ec>
   12714:	0e810793          	addi	a5,sp,232
   12718:	00300693          	li	a3,3
   1271c:	000e8593          	mv	a1,t4
   12720:	0f810893          	addi	a7,sp,248
   12724:	0ec10813          	addi	a6,sp,236
   12728:	000b8713          	mv	a4,s7
   1272c:	000c8613          	mv	a2,s9
   12730:	000a8513          	mv	a0,s5
   12734:	02613423          	sd	t1,40(sp)
   12738:	03d13023          	sd	t4,32(sp)
   1273c:	6c1020ef          	jal	ra,155fc <_ldtoa_r>
   12740:	00054683          	lbu	a3,0(a0)
   12744:	03000793          	li	a5,48
   12748:	00050d93          	mv	s11,a0
   1274c:	02013e83          	ld	t4,32(sp)
   12750:	02813303          	ld	t1,40(sp)
   12754:	0ef68063          	beq	a3,a5,12834 <_vfprintf_r+0x226c>
   12758:	0e812783          	lw	a5,232(sp)
   1275c:	017787b3          	add	a5,a5,s7
   12760:	00fd8a33          	add	s4,s11,a5
   12764:	00000613          	li	a2,0
   12768:	00000693          	li	a3,0
   1276c:	000e8513          	mv	a0,t4
   12770:	000c8593          	mv	a1,s9
   12774:	02613023          	sd	t1,32(sp)
   12778:	5280d0ef          	jal	ra,1fca0 <__eqtf2>
   1277c:	000a0793          	mv	a5,s4
   12780:	02013303          	ld	t1,32(sp)
   12784:	00051463          	bnez	a0,1278c <_vfprintf_r+0x21c4>
   12788:	bf8fe06f          	j	10b80 <_vfprintf_r+0x5b8>
   1278c:	0f813783          	ld	a5,248(sp)
   12790:	03000613          	li	a2,48
   12794:	0147e463          	bltu	a5,s4,1279c <_vfprintf_r+0x21d4>
   12798:	be8fe06f          	j	10b80 <_vfprintf_r+0x5b8>
   1279c:	00178713          	addi	a4,a5,1
   127a0:	0ee13c23          	sd	a4,248(sp)
   127a4:	00c78023          	sb	a2,0(a5)
   127a8:	0f813783          	ld	a5,248(sp)
   127ac:	ff47e8e3          	bltu	a5,s4,1279c <_vfprintf_r+0x21d4>
   127b0:	bd0fe06f          	j	10b80 <_vfprintf_r+0x5b8>
   127b4:	00013c23          	sd	zero,24(sp)
   127b8:	00078493          	mv	s1,a5
   127bc:	fff00793          	li	a5,-1
   127c0:	03f79793          	slli	a5,a5,0x3f
   127c4:	00fcccb3          	xor	s9,s9,a5
   127c8:	02d00793          	li	a5,45
   127cc:	06f13023          	sd	a5,96(sp)
   127d0:	c61ff06f          	j	12430 <_vfprintf_r+0x1e68>
   127d4:	11010613          	addi	a2,sp,272
   127d8:	000a0593          	mv	a1,s4
   127dc:	000a8513          	mv	a0,s5
   127e0:	681080ef          	jal	ra,1b660 <__sprint_r>
   127e4:	00050463          	beqz	a0,127ec <_vfprintf_r+0x2224>
   127e8:	870fe06f          	j	10858 <_vfprintf_r+0x290>
   127ec:	0004c603          	lbu	a2,0(s1)
   127f0:	12013783          	ld	a5,288(sp)
   127f4:	19010313          	addi	t1,sp,400
   127f8:	00cb8bb3          	add	s7,s7,a2
   127fc:	9c9ff06f          	j	121c4 <_vfprintf_r+0x1bfc>
   12800:	00013583          	ld	a1,0(sp)
   12804:	11010613          	addi	a2,sp,272
   12808:	000a8513          	mv	a0,s5
   1280c:	655080ef          	jal	ra,1b660 <__sprint_r>
   12810:	00050463          	beqz	a0,12818 <_vfprintf_r+0x2250>
   12814:	844fe06f          	j	10858 <_vfprintf_r+0x290>
   12818:	0e812403          	lw	s0,232(sp)
   1281c:	12013783          	ld	a5,288(sp)
   12820:	19010313          	addi	t1,sp,400
   12824:	ac0ff06f          	j	11ae4 <_vfprintf_r+0x151c>
   12828:	02d00793          	li	a5,45
   1282c:	0cf10fa3          	sb	a5,223(sp)
   12830:	f68ff06f          	j	11f98 <_vfprintf_r+0x19d0>
   12834:	000e8513          	mv	a0,t4
   12838:	00000613          	li	a2,0
   1283c:	00000693          	li	a3,0
   12840:	000c8593          	mv	a1,s9
   12844:	02613423          	sd	t1,40(sp)
   12848:	03d13023          	sd	t4,32(sp)
   1284c:	4540d0ef          	jal	ra,1fca0 <__eqtf2>
   12850:	02013e83          	ld	t4,32(sp)
   12854:	02813303          	ld	t1,40(sp)
   12858:	f00500e3          	beqz	a0,12758 <_vfprintf_r+0x2190>
   1285c:	00100693          	li	a3,1
   12860:	417687bb          	subw	a5,a3,s7
   12864:	0ef12423          	sw	a5,232(sp)
   12868:	ef5ff06f          	j	1275c <_vfprintf_r+0x2194>
   1286c:	0df14783          	lbu	a5,223(sp)
   12870:	01613823          	sd	s6,16(sp)
   12874:	04013023          	sd	zero,64(sp)
   12878:	02013c23          	sd	zero,56(sp)
   1287c:	02013023          	sd	zero,32(sp)
   12880:	000b8a13          	mv	s4,s7
   12884:	000b8c93          	mv	s9,s7
   12888:	00000b93          	li	s7,0
   1288c:	00078463          	beqz	a5,12894 <_vfprintf_r+0x22cc>
   12890:	8dcfe06f          	j	1096c <_vfprintf_r+0x3a4>
   12894:	f20fe06f          	j	10fb4 <_vfprintf_r+0x9ec>
   12898:	00013583          	ld	a1,0(sp)
   1289c:	11010613          	addi	a2,sp,272
   128a0:	000a8513          	mv	a0,s5
   128a4:	5bd080ef          	jal	ra,1b660 <__sprint_r>
   128a8:	00050463          	beqz	a0,128b0 <_vfprintf_r+0x22e8>
   128ac:	fadfd06f          	j	10858 <_vfprintf_r+0x290>
   128b0:	0e812603          	lw	a2,232(sp)
   128b4:	02813703          	ld	a4,40(sp)
   128b8:	12013783          	ld	a5,288(sp)
   128bc:	19010313          	addi	t1,sp,400
   128c0:	40c7063b          	subw	a2,a4,a2
   128c4:	a68ff06f          	j	11b2c <_vfprintf_r+0x1564>
   128c8:	02813703          	ld	a4,40(sp)
   128cc:	04813783          	ld	a5,72(sp)
   128d0:	06700413          	li	s0,103
   128d4:	00e78cbb          	addw	s9,a5,a4
   128d8:	02013703          	ld	a4,32(sp)
   128dc:	38e05063          	blez	a4,12c5c <_vfprintf_r+0x2694>
   128e0:	04013783          	ld	a5,64(sp)
   128e4:	4007f793          	andi	a5,a5,1024
   128e8:	22079863          	bnez	a5,12b18 <_vfprintf_r+0x2550>
   128ec:	fffcca13          	not	s4,s9
   128f0:	43fa5a13          	srai	s4,s4,0x3f
   128f4:	014cfa33          	and	s4,s9,s4
   128f8:	000a0a1b          	sext.w	s4,s4
   128fc:	df9ff06f          	j	126f4 <_vfprintf_r+0x212c>
   12900:	04013783          	ld	a5,64(sp)
   12904:	02013703          	ld	a4,32(sp)
   12908:	0017f793          	andi	a5,a5,1
   1290c:	00fbe7b3          	or	a5,s7,a5
   12910:	0007879b          	sext.w	a5,a5
   12914:	38e05263          	blez	a4,12c98 <_vfprintf_r+0x26d0>
   12918:	30079063          	bnez	a5,12c18 <_vfprintf_r+0x2650>
   1291c:	02013c83          	ld	s9,32(sp)
   12920:	06600413          	li	s0,102
   12924:	fbdff06f          	j	128e0 <_vfprintf_r+0x2318>
   12928:	ff000613          	li	a2,-16
   1292c:	40b0043b          	negw	s0,a1
   12930:	06c5d663          	bge	a1,a2,1299c <_vfprintf_r+0x23d4>
   12934:	00700c93          	li	s9,7
   12938:	00013b03          	ld	s6,0(sp)
   1293c:	00c0006f          	j	12948 <_vfprintf_r+0x2380>
   12940:	ff04041b          	addiw	s0,s0,-16
   12944:	048d5c63          	bge	s10,s0,1299c <_vfprintf_r+0x23d4>
   12948:	0016869b          	addiw	a3,a3,1
   1294c:	01078793          	addi	a5,a5,16
   12950:	01833023          	sd	s8,0(t1)
   12954:	01a33423          	sd	s10,8(t1)
   12958:	12f13023          	sd	a5,288(sp)
   1295c:	10d12c23          	sw	a3,280(sp)
   12960:	01030313          	addi	t1,t1,16
   12964:	fcdcdee3          	bge	s9,a3,12940 <_vfprintf_r+0x2378>
   12968:	11010613          	addi	a2,sp,272
   1296c:	000b0593          	mv	a1,s6
   12970:	000a8513          	mv	a0,s5
   12974:	4ed080ef          	jal	ra,1b660 <__sprint_r>
   12978:	00050463          	beqz	a0,12980 <_vfprintf_r+0x23b8>
   1297c:	eddfd06f          	j	10858 <_vfprintf_r+0x290>
   12980:	12013783          	ld	a5,288(sp)
   12984:	11812683          	lw	a3,280(sp)
   12988:	19010313          	addi	t1,sp,400
   1298c:	fb5ff06f          	j	12940 <_vfprintf_r+0x2378>
   12990:	fff00793          	li	a5,-1
   12994:	00f13423          	sd	a5,8(sp)
   12998:	ee9fd06f          	j	10880 <_vfprintf_r+0x2b8>
   1299c:	0016869b          	addiw	a3,a3,1
   129a0:	008787b3          	add	a5,a5,s0
   129a4:	01833023          	sd	s8,0(t1)
   129a8:	00833423          	sd	s0,8(t1)
   129ac:	12f13023          	sd	a5,288(sp)
   129b0:	10d12c23          	sw	a3,280(sp)
   129b4:	00700613          	li	a2,7
   129b8:	ced65a63          	bge	a2,a3,11eac <_vfprintf_r+0x18e4>
   129bc:	00013583          	ld	a1,0(sp)
   129c0:	11010613          	addi	a2,sp,272
   129c4:	000a8513          	mv	a0,s5
   129c8:	499080ef          	jal	ra,1b660 <__sprint_r>
   129cc:	00050463          	beqz	a0,129d4 <_vfprintf_r+0x240c>
   129d0:	e89fd06f          	j	10858 <_vfprintf_r+0x290>
   129d4:	12013783          	ld	a5,288(sp)
   129d8:	11812683          	lw	a3,280(sp)
   129dc:	19010313          	addi	t1,sp,400
   129e0:	fa8fe06f          	j	11188 <_vfprintf_r+0xbc0>
   129e4:	08013783          	ld	a5,128(sp)
   129e8:	000b0693          	mv	a3,s6
   129ec:	0ef13c23          	sd	a5,248(sp)
   129f0:	02013783          	ld	a5,32(sp)
   129f4:	fffb4603          	lbu	a2,-1(s6)
   129f8:	00f7c583          	lbu	a1,15(a5)
   129fc:	02c59063          	bne	a1,a2,12a1c <_vfprintf_r+0x2454>
   12a00:	03000513          	li	a0,48
   12a04:	fea68fa3          	sb	a0,-1(a3)
   12a08:	0f813683          	ld	a3,248(sp)
   12a0c:	fff68793          	addi	a5,a3,-1
   12a10:	0ef13c23          	sd	a5,248(sp)
   12a14:	fff6c603          	lbu	a2,-1(a3)
   12a18:	fec586e3          	beq	a1,a2,12a04 <_vfprintf_r+0x243c>
   12a1c:	0016059b          	addiw	a1,a2,1
   12a20:	03900513          	li	a0,57
   12a24:	0ff5f593          	andi	a1,a1,255
   12a28:	00a60663          	beq	a2,a0,12a34 <_vfprintf_r+0x246c>
   12a2c:	feb68fa3          	sb	a1,-1(a3)
   12a30:	c19ff06f          	j	12648 <_vfprintf_r+0x2080>
   12a34:	02013783          	ld	a5,32(sp)
   12a38:	00a7c583          	lbu	a1,10(a5)
   12a3c:	feb68fa3          	sb	a1,-1(a3)
   12a40:	c09ff06f          	j	12648 <_vfprintf_r+0x2080>
   12a44:	001b8a1b          	addiw	s4,s7,1
   12a48:	000a0713          	mv	a4,s4
   12a4c:	000e8593          	mv	a1,t4
   12a50:	0f810893          	addi	a7,sp,248
   12a54:	0ec10813          	addi	a6,sp,236
   12a58:	0e810793          	addi	a5,sp,232
   12a5c:	00200693          	li	a3,2
   12a60:	000c8613          	mv	a2,s9
   12a64:	000a8513          	mv	a0,s5
   12a68:	03d13023          	sd	t4,32(sp)
   12a6c:	391020ef          	jal	ra,155fc <_ldtoa_r>
   12a70:	00050d93          	mv	s11,a0
   12a74:	02013e83          	ld	t4,32(sp)
   12a78:	02813303          	ld	t1,40(sp)
   12a7c:	014d8a33          	add	s4,s11,s4
   12a80:	ce5ff06f          	j	12764 <_vfprintf_r+0x219c>
   12a84:	001b859b          	addiw	a1,s7,1
   12a88:	000a8513          	mv	a0,s5
   12a8c:	00613c23          	sd	t1,24(sp)
   12a90:	180040ef          	jal	ra,16c10 <_malloc_r>
   12a94:	00050d93          	mv	s11,a0
   12a98:	01813303          	ld	t1,24(sp)
   12a9c:	24050e63          	beqz	a0,12cf8 <_vfprintf_r+0x2730>
   12aa0:	00a13c23          	sd	a0,24(sp)
   12aa4:	96dff06f          	j	12410 <_vfprintf_r+0x1e48>
   12aa8:	03000793          	li	a5,48
   12aac:	0ef10023          	sb	a5,224(sp)
   12ab0:	07800713          	li	a4,120
   12ab4:	93dff06f          	j	123f0 <_vfprintf_r+0x1e28>
   12ab8:	000b8463          	beqz	s7,12ac0 <_vfprintf_r+0x24f8>
   12abc:	820fe06f          	j	10adc <_vfprintf_r+0x514>
   12ac0:	00100b93          	li	s7,1
   12ac4:	818fe06f          	j	10adc <_vfprintf_r+0x514>
   12ac8:	00600b93          	li	s7,6
   12acc:	810fe06f          	j	10adc <_vfprintf_r+0x514>
   12ad0:	03513423          	sd	s5,40(sp)
   12ad4:	08013903          	ld	s2,128(sp)
   12ad8:	000d8893          	mv	a7,s11
   12adc:	08813023          	sd	s0,128(sp)
   12ae0:	00048813          	mv	a6,s1
   12ae4:	0a013983          	ld	s3,160(sp)
   12ae8:	0a813b83          	ld	s7,168(sp)
   12aec:	0b013303          	ld	t1,176(sp)
   12af0:	09013403          	ld	s0,144(sp)
   12af4:	000c8b13          	mv	s6,s9
   12af8:	0b813a83          	ld	s5,184(sp)
   12afc:	0c013d83          	ld	s11,192(sp)
   12b00:	09813483          	ld	s1,152(sp)
   12b04:	ac1ff06f          	j	125c4 <_vfprintf_r+0x1ffc>
   12b08:	00f72023          	sw	a5,0(a4)
   12b0c:	00090d93          	mv	s11,s2
   12b10:	dc8fe06f          	j	110d8 <_vfprintf_r+0xb10>
   12b14:	06700413          	li	s0,103
   12b18:	07813503          	ld	a0,120(sp)
   12b1c:	02013703          	ld	a4,32(sp)
   12b20:	04013023          	sd	zero,64(sp)
   12b24:	00054783          	lbu	a5,0(a0)
   12b28:	02013c23          	sd	zero,56(sp)
   12b2c:	0ff00593          	li	a1,255
   12b30:	04b78063          	beq	a5,a1,12b70 <_vfprintf_r+0x25a8>
   12b34:	0007869b          	sext.w	a3,a5
   12b38:	02e6dc63          	bge	a3,a4,12b70 <_vfprintf_r+0x25a8>
   12b3c:	00154603          	lbu	a2,1(a0)
   12b40:	40d7073b          	subw	a4,a4,a3
   12b44:	00060e63          	beqz	a2,12b60 <_vfprintf_r+0x2598>
   12b48:	03813783          	ld	a5,56(sp)
   12b4c:	00150513          	addi	a0,a0,1
   12b50:	0017879b          	addiw	a5,a5,1
   12b54:	02f13c23          	sd	a5,56(sp)
   12b58:	00060793          	mv	a5,a2
   12b5c:	fd5ff06f          	j	12b30 <_vfprintf_r+0x2568>
   12b60:	04013683          	ld	a3,64(sp)
   12b64:	0016869b          	addiw	a3,a3,1
   12b68:	04d13023          	sd	a3,64(sp)
   12b6c:	fc5ff06f          	j	12b30 <_vfprintf_r+0x2568>
   12b70:	02e13023          	sd	a4,32(sp)
   12b74:	03813783          	ld	a5,56(sp)
   12b78:	04013703          	ld	a4,64(sp)
   12b7c:	08813583          	ld	a1,136(sp)
   12b80:	06a13c23          	sd	a0,120(sp)
   12b84:	00e7853b          	addw	a0,a5,a4
   12b88:	08613023          	sd	t1,128(sp)
   12b8c:	5f40e0ef          	jal	ra,21180 <__muldi3>
   12b90:	0195053b          	addw	a0,a0,s9
   12b94:	00050c9b          	sext.w	s9,a0
   12b98:	fffcca13          	not	s4,s9
   12b9c:	43fa5a13          	srai	s4,s4,0x3f
   12ba0:	01457533          	and	a0,a0,s4
   12ba4:	00050a1b          	sext.w	s4,a0
   12ba8:	08013303          	ld	t1,128(sp)
   12bac:	948fe06f          	j	10cf4 <_vfprintf_r+0x72c>
   12bb0:	000e8513          	mv	a0,t4
   12bb4:	000c8593          	mv	a1,s9
   12bb8:	02613423          	sd	t1,40(sp)
   12bbc:	40c0e0ef          	jal	ra,20fc8 <__trunctfdf2>
   12bc0:	0e810593          	addi	a1,sp,232
   12bc4:	3d5050ef          	jal	ra,18798 <frexp>
   12bc8:	30c0e0ef          	jal	ra,20ed4 <__extenddftf2>
   12bcc:	0000f797          	auipc	a5,0xf
   12bd0:	80478793          	addi	a5,a5,-2044 # 213d0 <zeroes.4539+0x30>
   12bd4:	0087b683          	ld	a3,8(a5)
   12bd8:	00000613          	li	a2,0
   12bdc:	3100d0ef          	jal	ra,1feec <__multf3>
   12be0:	00000613          	li	a2,0
   12be4:	00000693          	li	a3,0
   12be8:	00050c93          	mv	s9,a0
   12bec:	02b13023          	sd	a1,32(sp)
   12bf0:	0b00d0ef          	jal	ra,1fca0 <__eqtf2>
   12bf4:	02013f03          	ld	t5,32(sp)
   12bf8:	02813303          	ld	t1,40(sp)
   12bfc:	00051663          	bnez	a0,12c08 <_vfprintf_r+0x2640>
   12c00:	00100793          	li	a5,1
   12c04:	0ef12423          	sw	a5,232(sp)
   12c08:	0000e797          	auipc	a5,0xe
   12c0c:	7f878793          	addi	a5,a5,2040 # 21400 <zeroes.4539+0x60>
   12c10:	02f13023          	sd	a5,32(sp)
   12c14:	895ff06f          	j	124a8 <_vfprintf_r+0x1ee0>
   12c18:	04813783          	ld	a5,72(sp)
   12c1c:	06600413          	li	s0,102
   12c20:	00e78cbb          	addw	s9,a5,a4
   12c24:	017c8cbb          	addw	s9,s9,s7
   12c28:	cb9ff06f          	j	128e0 <_vfprintf_r+0x2318>
   12c2c:	0f210793          	addi	a5,sp,242
   12c30:	00069863          	bnez	a3,12c40 <_vfprintf_r+0x2678>
   12c34:	03000793          	li	a5,48
   12c38:	0ef10923          	sb	a5,242(sp)
   12c3c:	0f310793          	addi	a5,sp,243
   12c40:	21010713          	addi	a4,sp,528
   12c44:	030a0a1b          	addiw	s4,s4,48
   12c48:	40e786b3          	sub	a3,a5,a4
   12c4c:	01478023          	sb	s4,0(a5)
   12c50:	1216879b          	addiw	a5,a3,289
   12c54:	06f13423          	sd	a5,104(sp)
   12c58:	84cfe06f          	j	10ca4 <_vfprintf_r+0x6dc>
   12c5c:	40ec87bb          	subw	a5,s9,a4
   12c60:	0017879b          	addiw	a5,a5,1
   12c64:	00078c9b          	sext.w	s9,a5
   12c68:	fffcca13          	not	s4,s9
   12c6c:	43fa5a13          	srai	s4,s4,0x3f
   12c70:	0147f7b3          	and	a5,a5,s4
   12c74:	00078a1b          	sext.w	s4,a5
   12c78:	a7dff06f          	j	126f4 <_vfprintf_r+0x212c>
   12c7c:	04013703          	ld	a4,64(sp)
   12c80:	00177693          	andi	a3,a4,1
   12c84:	00069463          	bnez	a3,12c8c <_vfprintf_r+0x26c4>
   12c88:	840fe06f          	j	10cc8 <_vfprintf_r+0x700>
   12c8c:	834fe06f          	j	10cc0 <_vfprintf_r+0x6f8>
   12c90:	00030793          	mv	a5,t1
   12c94:	824ff06f          	j	11cb8 <_vfprintf_r+0x16f0>
   12c98:	00079a63          	bnez	a5,12cac <_vfprintf_r+0x26e4>
   12c9c:	00100a13          	li	s4,1
   12ca0:	06600413          	li	s0,102
   12ca4:	00100c93          	li	s9,1
   12ca8:	a4dff06f          	j	126f4 <_vfprintf_r+0x212c>
   12cac:	04813783          	ld	a5,72(sp)
   12cb0:	06600413          	li	s0,102
   12cb4:	0017879b          	addiw	a5,a5,1
   12cb8:	01778e3b          	addw	t3,a5,s7
   12cbc:	000e0c9b          	sext.w	s9,t3
   12cc0:	fffcca13          	not	s4,s9
   12cc4:	43fa5a13          	srai	s4,s4,0x3f
   12cc8:	014e7e33          	and	t3,t3,s4
   12ccc:	000e0a1b          	sext.w	s4,t3
   12cd0:	a25ff06f          	j	126f4 <_vfprintf_r+0x212c>
   12cd4:	01013703          	ld	a4,16(sp)
   12cd8:	00072b83          	lw	s7,0(a4)
   12cdc:	00870713          	addi	a4,a4,8
   12ce0:	000bd463          	bgez	s7,12ce8 <_vfprintf_r+0x2720>
   12ce4:	fff00b93          	li	s7,-1
   12ce8:	00194403          	lbu	s0,1(s2)
   12cec:	00e13823          	sd	a4,16(sp)
   12cf0:	00078913          	mv	s2,a5
   12cf4:	a91fd06f          	j	10784 <_vfprintf_r+0x1bc>
   12cf8:	00013703          	ld	a4,0(sp)
   12cfc:	01075783          	lhu	a5,16(a4)
   12d00:	0407e793          	ori	a5,a5,64
   12d04:	00f71823          	sh	a5,16(a4)
   12d08:	b65fd06f          	j	1086c <_vfprintf_r+0x2a4>
   12d0c:	000b8a13          	mv	s4,s7
   12d10:	014d8a33          	add	s4,s11,s4
   12d14:	a51ff06f          	j	12764 <_vfprintf_r+0x219c>
   12d18:	00200793          	li	a5,2
   12d1c:	06f13423          	sd	a5,104(sp)
   12d20:	f85fd06f          	j	10ca4 <_vfprintf_r+0x6dc>

0000000000012d24 <vfprintf>:
   12d24:	75818793          	addi	a5,gp,1880 # 23160 <_impure_ptr>
   12d28:	00060693          	mv	a3,a2
   12d2c:	00058613          	mv	a2,a1
   12d30:	00050593          	mv	a1,a0
   12d34:	0007b503          	ld	a0,0(a5)
   12d38:	891fd06f          	j	105c8 <_vfprintf_r>

0000000000012d3c <__sbprintf>:
   12d3c:	0105d783          	lhu	a5,16(a1)
   12d40:	0ac5ae03          	lw	t3,172(a1)
   12d44:	0125d303          	lhu	t1,18(a1)
   12d48:	0305b883          	ld	a7,48(a1)
   12d4c:	0405b803          	ld	a6,64(a1)
   12d50:	b3010113          	addi	sp,sp,-1232
   12d54:	ffd7f793          	andi	a5,a5,-3
   12d58:	40000713          	li	a4,1024
   12d5c:	4c813023          	sd	s0,1216(sp)
   12d60:	00f11823          	sh	a5,16(sp)
   12d64:	00058413          	mv	s0,a1
   12d68:	0b010793          	addi	a5,sp,176
   12d6c:	00010593          	mv	a1,sp
   12d70:	4a913c23          	sd	s1,1208(sp)
   12d74:	4b213823          	sd	s2,1200(sp)
   12d78:	4c113423          	sd	ra,1224(sp)
   12d7c:	00050913          	mv	s2,a0
   12d80:	0bc12623          	sw	t3,172(sp)
   12d84:	00611923          	sh	t1,18(sp)
   12d88:	03113823          	sd	a7,48(sp)
   12d8c:	05013023          	sd	a6,64(sp)
   12d90:	00f13023          	sd	a5,0(sp)
   12d94:	00f13c23          	sd	a5,24(sp)
   12d98:	00e12623          	sw	a4,12(sp)
   12d9c:	02e12023          	sw	a4,32(sp)
   12da0:	02012423          	sw	zero,40(sp)
   12da4:	825fd0ef          	jal	ra,105c8 <_vfprintf_r>
   12da8:	00050493          	mv	s1,a0
   12dac:	02055c63          	bgez	a0,12de4 <__sbprintf+0xa8>
   12db0:	01015783          	lhu	a5,16(sp)
   12db4:	0407f793          	andi	a5,a5,64
   12db8:	00078863          	beqz	a5,12dc8 <__sbprintf+0x8c>
   12dbc:	01045783          	lhu	a5,16(s0)
   12dc0:	0407e793          	ori	a5,a5,64
   12dc4:	00f41823          	sh	a5,16(s0)
   12dc8:	4c813083          	ld	ra,1224(sp)
   12dcc:	4c013403          	ld	s0,1216(sp)
   12dd0:	00048513          	mv	a0,s1
   12dd4:	4b013903          	ld	s2,1200(sp)
   12dd8:	4b813483          	ld	s1,1208(sp)
   12ddc:	4d010113          	addi	sp,sp,1232
   12de0:	00008067          	ret
   12de4:	00010593          	mv	a1,sp
   12de8:	00090513          	mv	a0,s2
   12dec:	5a4000ef          	jal	ra,13390 <_fflush_r>
   12df0:	fc0500e3          	beqz	a0,12db0 <__sbprintf+0x74>
   12df4:	fff00493          	li	s1,-1
   12df8:	fb9ff06f          	j	12db0 <__sbprintf+0x74>

0000000000012dfc <__swsetup_r>:
   12dfc:	75818793          	addi	a5,gp,1880 # 23160 <_impure_ptr>
   12e00:	0007b783          	ld	a5,0(a5)
   12e04:	fe010113          	addi	sp,sp,-32
   12e08:	00813823          	sd	s0,16(sp)
   12e0c:	00913423          	sd	s1,8(sp)
   12e10:	00113c23          	sd	ra,24(sp)
   12e14:	00050493          	mv	s1,a0
   12e18:	00058413          	mv	s0,a1
   12e1c:	00078663          	beqz	a5,12e28 <__swsetup_r+0x2c>
   12e20:	0507a703          	lw	a4,80(a5)
   12e24:	08070663          	beqz	a4,12eb0 <__swsetup_r+0xb4>
   12e28:	01041703          	lh	a4,16(s0)
   12e2c:	03071793          	slli	a5,a4,0x30
   12e30:	0307d793          	srli	a5,a5,0x30
   12e34:	0087f693          	andi	a3,a5,8
   12e38:	08068a63          	beqz	a3,12ecc <__swsetup_r+0xd0>
   12e3c:	01843683          	ld	a3,24(s0)
   12e40:	0a068a63          	beqz	a3,12ef4 <__swsetup_r+0xf8>
   12e44:	0017f713          	andi	a4,a5,1
   12e48:	02070863          	beqz	a4,12e78 <__swsetup_r+0x7c>
   12e4c:	02042783          	lw	a5,32(s0)
   12e50:	00042623          	sw	zero,12(s0)
   12e54:	00000513          	li	a0,0
   12e58:	40f007bb          	negw	a5,a5
   12e5c:	02f42423          	sw	a5,40(s0)
   12e60:	02068a63          	beqz	a3,12e94 <__swsetup_r+0x98>
   12e64:	01813083          	ld	ra,24(sp)
   12e68:	01013403          	ld	s0,16(sp)
   12e6c:	00813483          	ld	s1,8(sp)
   12e70:	02010113          	addi	sp,sp,32
   12e74:	00008067          	ret
   12e78:	0027f793          	andi	a5,a5,2
   12e7c:	00000713          	li	a4,0
   12e80:	00079463          	bnez	a5,12e88 <__swsetup_r+0x8c>
   12e84:	02042703          	lw	a4,32(s0)
   12e88:	00e42623          	sw	a4,12(s0)
   12e8c:	00000513          	li	a0,0
   12e90:	fc069ae3          	bnez	a3,12e64 <__swsetup_r+0x68>
   12e94:	01041783          	lh	a5,16(s0)
   12e98:	0807f713          	andi	a4,a5,128
   12e9c:	fc0704e3          	beqz	a4,12e64 <__swsetup_r+0x68>
   12ea0:	0407e793          	ori	a5,a5,64
   12ea4:	00f41823          	sh	a5,16(s0)
   12ea8:	fff00513          	li	a0,-1
   12eac:	fb9ff06f          	j	12e64 <__swsetup_r+0x68>
   12eb0:	00078513          	mv	a0,a5
   12eb4:	085000ef          	jal	ra,13738 <__sinit>
   12eb8:	01041703          	lh	a4,16(s0)
   12ebc:	03071793          	slli	a5,a4,0x30
   12ec0:	0307d793          	srli	a5,a5,0x30
   12ec4:	0087f693          	andi	a3,a5,8
   12ec8:	f6069ae3          	bnez	a3,12e3c <__swsetup_r+0x40>
   12ecc:	0107f693          	andi	a3,a5,16
   12ed0:	06068e63          	beqz	a3,12f4c <__swsetup_r+0x150>
   12ed4:	0047f793          	andi	a5,a5,4
   12ed8:	04079063          	bnez	a5,12f18 <__swsetup_r+0x11c>
   12edc:	01843683          	ld	a3,24(s0)
   12ee0:	00876793          	ori	a5,a4,8
   12ee4:	00f41823          	sh	a5,16(s0)
   12ee8:	03079793          	slli	a5,a5,0x30
   12eec:	0307d793          	srli	a5,a5,0x30
   12ef0:	f4069ae3          	bnez	a3,12e44 <__swsetup_r+0x48>
   12ef4:	2807f713          	andi	a4,a5,640
   12ef8:	20000613          	li	a2,512
   12efc:	f4c704e3          	beq	a4,a2,12e44 <__swsetup_r+0x48>
   12f00:	00040593          	mv	a1,s0
   12f04:	00048513          	mv	a0,s1
   12f08:	3e9030ef          	jal	ra,16af0 <__smakebuf_r>
   12f0c:	01045783          	lhu	a5,16(s0)
   12f10:	01843683          	ld	a3,24(s0)
   12f14:	f31ff06f          	j	12e44 <__swsetup_r+0x48>
   12f18:	05843583          	ld	a1,88(s0)
   12f1c:	00058e63          	beqz	a1,12f38 <__swsetup_r+0x13c>
   12f20:	07440793          	addi	a5,s0,116
   12f24:	00f58863          	beq	a1,a5,12f34 <__swsetup_r+0x138>
   12f28:	00048513          	mv	a0,s1
   12f2c:	18d000ef          	jal	ra,138b8 <_free_r>
   12f30:	01041703          	lh	a4,16(s0)
   12f34:	04043c23          	sd	zero,88(s0)
   12f38:	01843683          	ld	a3,24(s0)
   12f3c:	fdb77713          	andi	a4,a4,-37
   12f40:	00042423          	sw	zero,8(s0)
   12f44:	00d43023          	sd	a3,0(s0)
   12f48:	f99ff06f          	j	12ee0 <__swsetup_r+0xe4>
   12f4c:	00900793          	li	a5,9
   12f50:	00f4a023          	sw	a5,0(s1)
   12f54:	04076713          	ori	a4,a4,64
   12f58:	00e41823          	sh	a4,16(s0)
   12f5c:	fff00513          	li	a0,-1
   12f60:	f05ff06f          	j	12e64 <__swsetup_r+0x68>

0000000000012f64 <__register_exitproc>:
   12f64:	74818793          	addi	a5,gp,1864 # 23150 <_global_impure_ptr>
   12f68:	0007b703          	ld	a4,0(a5)
   12f6c:	1f873783          	ld	a5,504(a4)
   12f70:	06078063          	beqz	a5,12fd0 <__register_exitproc+0x6c>
   12f74:	0087a703          	lw	a4,8(a5)
   12f78:	01f00813          	li	a6,31
   12f7c:	08e84663          	blt	a6,a4,13008 <__register_exitproc+0xa4>
   12f80:	02050863          	beqz	a0,12fb0 <__register_exitproc+0x4c>
   12f84:	00371813          	slli	a6,a4,0x3
   12f88:	01078833          	add	a6,a5,a6
   12f8c:	10c83823          	sd	a2,272(a6)
   12f90:	3107a883          	lw	a7,784(a5)
   12f94:	00100613          	li	a2,1
   12f98:	00e6163b          	sllw	a2,a2,a4
   12f9c:	00c8e8b3          	or	a7,a7,a2
   12fa0:	3117a823          	sw	a7,784(a5)
   12fa4:	20d83823          	sd	a3,528(a6)
   12fa8:	00200693          	li	a3,2
   12fac:	02d50863          	beq	a0,a3,12fdc <__register_exitproc+0x78>
   12fb0:	00270693          	addi	a3,a4,2
   12fb4:	00369693          	slli	a3,a3,0x3
   12fb8:	0017071b          	addiw	a4,a4,1
   12fbc:	00e7a423          	sw	a4,8(a5)
   12fc0:	00d787b3          	add	a5,a5,a3
   12fc4:	00b7b023          	sd	a1,0(a5)
   12fc8:	00000513          	li	a0,0
   12fcc:	00008067          	ret
   12fd0:	20070793          	addi	a5,a4,512
   12fd4:	1ef73c23          	sd	a5,504(a4)
   12fd8:	f9dff06f          	j	12f74 <__register_exitproc+0x10>
   12fdc:	3147a683          	lw	a3,788(a5)
   12fe0:	00000513          	li	a0,0
   12fe4:	00c6e633          	or	a2,a3,a2
   12fe8:	00270693          	addi	a3,a4,2
   12fec:	00369693          	slli	a3,a3,0x3
   12ff0:	0017071b          	addiw	a4,a4,1
   12ff4:	30c7aa23          	sw	a2,788(a5)
   12ff8:	00e7a423          	sw	a4,8(a5)
   12ffc:	00d787b3          	add	a5,a5,a3
   13000:	00b7b023          	sd	a1,0(a5)
   13004:	00008067          	ret
   13008:	fff00513          	li	a0,-1
   1300c:	00008067          	ret

0000000000013010 <__call_exitprocs>:
   13010:	fb010113          	addi	sp,sp,-80
   13014:	74818793          	addi	a5,gp,1864 # 23150 <_global_impure_ptr>
   13018:	01813023          	sd	s8,0(sp)
   1301c:	0007bc03          	ld	s8,0(a5)
   13020:	03313423          	sd	s3,40(sp)
   13024:	03413023          	sd	s4,32(sp)
   13028:	01513c23          	sd	s5,24(sp)
   1302c:	01613823          	sd	s6,16(sp)
   13030:	04113423          	sd	ra,72(sp)
   13034:	04813023          	sd	s0,64(sp)
   13038:	02913c23          	sd	s1,56(sp)
   1303c:	03213823          	sd	s2,48(sp)
   13040:	01713423          	sd	s7,8(sp)
   13044:	00050a93          	mv	s5,a0
   13048:	00058b13          	mv	s6,a1
   1304c:	00100a13          	li	s4,1
   13050:	fff00993          	li	s3,-1
   13054:	1f8c3903          	ld	s2,504(s8)
   13058:	02090863          	beqz	s2,13088 <__call_exitprocs+0x78>
   1305c:	00892483          	lw	s1,8(s2)
   13060:	fff4841b          	addiw	s0,s1,-1
   13064:	02044263          	bltz	s0,13088 <__call_exitprocs+0x78>
   13068:	00349493          	slli	s1,s1,0x3
   1306c:	009904b3          	add	s1,s2,s1
   13070:	040b0463          	beqz	s6,130b8 <__call_exitprocs+0xa8>
   13074:	2084b783          	ld	a5,520(s1)
   13078:	05678063          	beq	a5,s6,130b8 <__call_exitprocs+0xa8>
   1307c:	fff4041b          	addiw	s0,s0,-1
   13080:	ff848493          	addi	s1,s1,-8
   13084:	ff3416e3          	bne	s0,s3,13070 <__call_exitprocs+0x60>
   13088:	04813083          	ld	ra,72(sp)
   1308c:	04013403          	ld	s0,64(sp)
   13090:	03813483          	ld	s1,56(sp)
   13094:	03013903          	ld	s2,48(sp)
   13098:	02813983          	ld	s3,40(sp)
   1309c:	02013a03          	ld	s4,32(sp)
   130a0:	01813a83          	ld	s5,24(sp)
   130a4:	01013b03          	ld	s6,16(sp)
   130a8:	00813b83          	ld	s7,8(sp)
   130ac:	00013c03          	ld	s8,0(sp)
   130b0:	05010113          	addi	sp,sp,80
   130b4:	00008067          	ret
   130b8:	00892783          	lw	a5,8(s2)
   130bc:	0084b703          	ld	a4,8(s1)
   130c0:	fff7879b          	addiw	a5,a5,-1
   130c4:	04878e63          	beq	a5,s0,13120 <__call_exitprocs+0x110>
   130c8:	0004b423          	sd	zero,8(s1)
   130cc:	fa0708e3          	beqz	a4,1307c <__call_exitprocs+0x6c>
   130d0:	31092783          	lw	a5,784(s2)
   130d4:	008a16bb          	sllw	a3,s4,s0
   130d8:	00892b83          	lw	s7,8(s2)
   130dc:	00d7f7b3          	and	a5,a5,a3
   130e0:	0007879b          	sext.w	a5,a5
   130e4:	00079e63          	bnez	a5,13100 <__call_exitprocs+0xf0>
   130e8:	000700e7          	jalr	a4
   130ec:	00892783          	lw	a5,8(s2)
   130f0:	f77792e3          	bne	a5,s7,13054 <__call_exitprocs+0x44>
   130f4:	1f8c3783          	ld	a5,504(s8)
   130f8:	f92782e3          	beq	a5,s2,1307c <__call_exitprocs+0x6c>
   130fc:	f59ff06f          	j	13054 <__call_exitprocs+0x44>
   13100:	31492783          	lw	a5,788(s2)
   13104:	1084b583          	ld	a1,264(s1)
   13108:	00d7f7b3          	and	a5,a5,a3
   1310c:	0007879b          	sext.w	a5,a5
   13110:	00079c63          	bnez	a5,13128 <__call_exitprocs+0x118>
   13114:	000a8513          	mv	a0,s5
   13118:	000700e7          	jalr	a4
   1311c:	fd1ff06f          	j	130ec <__call_exitprocs+0xdc>
   13120:	00892423          	sw	s0,8(s2)
   13124:	fa9ff06f          	j	130cc <__call_exitprocs+0xbc>
   13128:	00058513          	mv	a0,a1
   1312c:	000700e7          	jalr	a4
   13130:	fbdff06f          	j	130ec <__call_exitprocs+0xdc>

0000000000013134 <__sflush_r>:
   13134:	01059783          	lh	a5,16(a1)
   13138:	fd010113          	addi	sp,sp,-48
   1313c:	02813023          	sd	s0,32(sp)
   13140:	03079713          	slli	a4,a5,0x30
   13144:	03075713          	srli	a4,a4,0x30
   13148:	01313423          	sd	s3,8(sp)
   1314c:	02113423          	sd	ra,40(sp)
   13150:	00913c23          	sd	s1,24(sp)
   13154:	01213823          	sd	s2,16(sp)
   13158:	00877693          	andi	a3,a4,8
   1315c:	00058413          	mv	s0,a1
   13160:	00050993          	mv	s3,a0
   13164:	10069a63          	bnez	a3,13278 <__sflush_r+0x144>
   13168:	00001737          	lui	a4,0x1
   1316c:	80070713          	addi	a4,a4,-2048 # 800 <register_fini-0xf8b0>
   13170:	0085a683          	lw	a3,8(a1)
   13174:	00e7e7b3          	or	a5,a5,a4
   13178:	00f59823          	sh	a5,16(a1)
   1317c:	18d05063          	blez	a3,132fc <__sflush_r+0x1c8>
   13180:	04843703          	ld	a4,72(s0)
   13184:	0c070a63          	beqz	a4,13258 <__sflush_r+0x124>
   13188:	03079793          	slli	a5,a5,0x30
   1318c:	0307d793          	srli	a5,a5,0x30
   13190:	0009a483          	lw	s1,0(s3)
   13194:	03379693          	slli	a3,a5,0x33
   13198:	0009a023          	sw	zero,0(s3)
   1319c:	03043583          	ld	a1,48(s0)
   131a0:	1606c463          	bltz	a3,13308 <__sflush_r+0x1d4>
   131a4:	00000613          	li	a2,0
   131a8:	00100693          	li	a3,1
   131ac:	00098513          	mv	a0,s3
   131b0:	000700e7          	jalr	a4
   131b4:	fff00793          	li	a5,-1
   131b8:	00050613          	mv	a2,a0
   131bc:	18f50663          	beq	a0,a5,13348 <__sflush_r+0x214>
   131c0:	01045783          	lhu	a5,16(s0)
   131c4:	04843703          	ld	a4,72(s0)
   131c8:	03043583          	ld	a1,48(s0)
   131cc:	0047f793          	andi	a5,a5,4
   131d0:	00078e63          	beqz	a5,131ec <__sflush_r+0xb8>
   131d4:	00842683          	lw	a3,8(s0)
   131d8:	05843783          	ld	a5,88(s0)
   131dc:	40d60633          	sub	a2,a2,a3
   131e0:	00078663          	beqz	a5,131ec <__sflush_r+0xb8>
   131e4:	07042783          	lw	a5,112(s0)
   131e8:	40f60633          	sub	a2,a2,a5
   131ec:	00000693          	li	a3,0
   131f0:	00098513          	mv	a0,s3
   131f4:	000700e7          	jalr	a4
   131f8:	fff00793          	li	a5,-1
   131fc:	10f51a63          	bne	a0,a5,13310 <__sflush_r+0x1dc>
   13200:	0009a703          	lw	a4,0(s3)
   13204:	01041783          	lh	a5,16(s0)
   13208:	16070263          	beqz	a4,1336c <__sflush_r+0x238>
   1320c:	01d00693          	li	a3,29
   13210:	00d70663          	beq	a4,a3,1321c <__sflush_r+0xe8>
   13214:	01600693          	li	a3,22
   13218:	16d71463          	bne	a4,a3,13380 <__sflush_r+0x24c>
   1321c:	01843683          	ld	a3,24(s0)
   13220:	fffff737          	lui	a4,0xfffff
   13224:	7ff70713          	addi	a4,a4,2047 # fffffffffffff7ff <__BSS_END__+0xfffffffffffdc5f7>
   13228:	00e7f7b3          	and	a5,a5,a4
   1322c:	00f41823          	sh	a5,16(s0)
   13230:	00042423          	sw	zero,8(s0)
   13234:	00d43023          	sd	a3,0(s0)
   13238:	05843583          	ld	a1,88(s0)
   1323c:	0099a023          	sw	s1,0(s3)
   13240:	00058c63          	beqz	a1,13258 <__sflush_r+0x124>
   13244:	07440793          	addi	a5,s0,116
   13248:	00f58663          	beq	a1,a5,13254 <__sflush_r+0x120>
   1324c:	00098513          	mv	a0,s3
   13250:	668000ef          	jal	ra,138b8 <_free_r>
   13254:	04043c23          	sd	zero,88(s0)
   13258:	00000513          	li	a0,0
   1325c:	02813083          	ld	ra,40(sp)
   13260:	02013403          	ld	s0,32(sp)
   13264:	01813483          	ld	s1,24(sp)
   13268:	01013903          	ld	s2,16(sp)
   1326c:	00813983          	ld	s3,8(sp)
   13270:	03010113          	addi	sp,sp,48
   13274:	00008067          	ret
   13278:	0185b903          	ld	s2,24(a1)
   1327c:	fc090ee3          	beqz	s2,13258 <__sflush_r+0x124>
   13280:	0005b483          	ld	s1,0(a1)
   13284:	00377713          	andi	a4,a4,3
   13288:	0125b023          	sd	s2,0(a1)
   1328c:	412484bb          	subw	s1,s1,s2
   13290:	00000793          	li	a5,0
   13294:	00071463          	bnez	a4,1329c <__sflush_r+0x168>
   13298:	0205a783          	lw	a5,32(a1)
   1329c:	00f42623          	sw	a5,12(s0)
   132a0:	00904863          	bgtz	s1,132b0 <__sflush_r+0x17c>
   132a4:	fb5ff06f          	j	13258 <__sflush_r+0x124>
   132a8:	00a90933          	add	s2,s2,a0
   132ac:	fa9056e3          	blez	s1,13258 <__sflush_r+0x124>
   132b0:	04043783          	ld	a5,64(s0)
   132b4:	03043583          	ld	a1,48(s0)
   132b8:	00048693          	mv	a3,s1
   132bc:	00090613          	mv	a2,s2
   132c0:	00098513          	mv	a0,s3
   132c4:	000780e7          	jalr	a5
   132c8:	40a484bb          	subw	s1,s1,a0
   132cc:	fca04ee3          	bgtz	a0,132a8 <__sflush_r+0x174>
   132d0:	01045783          	lhu	a5,16(s0)
   132d4:	02813083          	ld	ra,40(sp)
   132d8:	01813483          	ld	s1,24(sp)
   132dc:	0407e793          	ori	a5,a5,64
   132e0:	00f41823          	sh	a5,16(s0)
   132e4:	02013403          	ld	s0,32(sp)
   132e8:	01013903          	ld	s2,16(sp)
   132ec:	00813983          	ld	s3,8(sp)
   132f0:	fff00513          	li	a0,-1
   132f4:	03010113          	addi	sp,sp,48
   132f8:	00008067          	ret
   132fc:	0705a703          	lw	a4,112(a1)
   13300:	e8e040e3          	bgtz	a4,13180 <__sflush_r+0x4c>
   13304:	f55ff06f          	j	13258 <__sflush_r+0x124>
   13308:	09043603          	ld	a2,144(s0)
   1330c:	ec1ff06f          	j	131cc <__sflush_r+0x98>
   13310:	01045783          	lhu	a5,16(s0)
   13314:	fffff737          	lui	a4,0xfffff
   13318:	7ff70713          	addi	a4,a4,2047 # fffffffffffff7ff <__BSS_END__+0xfffffffffffdc5f7>
   1331c:	00e7f7b3          	and	a5,a5,a4
   13320:	01843683          	ld	a3,24(s0)
   13324:	0107979b          	slliw	a5,a5,0x10
   13328:	4107d79b          	sraiw	a5,a5,0x10
   1332c:	00f41823          	sh	a5,16(s0)
   13330:	00042423          	sw	zero,8(s0)
   13334:	00d43023          	sd	a3,0(s0)
   13338:	03379713          	slli	a4,a5,0x33
   1333c:	ee075ee3          	bgez	a4,13238 <__sflush_r+0x104>
   13340:	08a43823          	sd	a0,144(s0)
   13344:	ef5ff06f          	j	13238 <__sflush_r+0x104>
   13348:	0009a783          	lw	a5,0(s3)
   1334c:	e6078ae3          	beqz	a5,131c0 <__sflush_r+0x8c>
   13350:	01d00713          	li	a4,29
   13354:	00e78663          	beq	a5,a4,13360 <__sflush_r+0x22c>
   13358:	01600713          	li	a4,22
   1335c:	f6e79ae3          	bne	a5,a4,132d0 <__sflush_r+0x19c>
   13360:	0099a023          	sw	s1,0(s3)
   13364:	00000513          	li	a0,0
   13368:	ef5ff06f          	j	1325c <__sflush_r+0x128>
   1336c:	fffff737          	lui	a4,0xfffff
   13370:	7ff70713          	addi	a4,a4,2047 # fffffffffffff7ff <__BSS_END__+0xfffffffffffdc5f7>
   13374:	01843683          	ld	a3,24(s0)
   13378:	00e7f7b3          	and	a5,a5,a4
   1337c:	fb1ff06f          	j	1332c <__sflush_r+0x1f8>
   13380:	0407e793          	ori	a5,a5,64
   13384:	00f41823          	sh	a5,16(s0)
   13388:	fff00513          	li	a0,-1
   1338c:	ed1ff06f          	j	1325c <__sflush_r+0x128>

0000000000013390 <_fflush_r>:
   13390:	fe010113          	addi	sp,sp,-32
   13394:	00813823          	sd	s0,16(sp)
   13398:	00113c23          	sd	ra,24(sp)
   1339c:	00050413          	mv	s0,a0
   133a0:	00050663          	beqz	a0,133ac <_fflush_r+0x1c>
   133a4:	05052783          	lw	a5,80(a0)
   133a8:	02078063          	beqz	a5,133c8 <_fflush_r+0x38>
   133ac:	01059783          	lh	a5,16(a1)
   133b0:	02079663          	bnez	a5,133dc <_fflush_r+0x4c>
   133b4:	01813083          	ld	ra,24(sp)
   133b8:	01013403          	ld	s0,16(sp)
   133bc:	00000513          	li	a0,0
   133c0:	02010113          	addi	sp,sp,32
   133c4:	00008067          	ret
   133c8:	00b13423          	sd	a1,8(sp)
   133cc:	36c000ef          	jal	ra,13738 <__sinit>
   133d0:	00813583          	ld	a1,8(sp)
   133d4:	01059783          	lh	a5,16(a1)
   133d8:	fc078ee3          	beqz	a5,133b4 <_fflush_r+0x24>
   133dc:	00040513          	mv	a0,s0
   133e0:	01013403          	ld	s0,16(sp)
   133e4:	01813083          	ld	ra,24(sp)
   133e8:	02010113          	addi	sp,sp,32
   133ec:	d49ff06f          	j	13134 <__sflush_r>

00000000000133f0 <fflush>:
   133f0:	00050593          	mv	a1,a0
   133f4:	00050863          	beqz	a0,13404 <fflush+0x14>
   133f8:	75818793          	addi	a5,gp,1880 # 23160 <_impure_ptr>
   133fc:	0007b503          	ld	a0,0(a5)
   13400:	f91ff06f          	j	13390 <_fflush_r>
   13404:	74818793          	addi	a5,gp,1864 # 23150 <_global_impure_ptr>
   13408:	0007b503          	ld	a0,0(a5)
   1340c:	00000597          	auipc	a1,0x0
   13410:	f8458593          	addi	a1,a1,-124 # 13390 <_fflush_r>
   13414:	0c10006f          	j	13cd4 <_fwalk_reent>

0000000000013418 <__fp_lock>:
   13418:	00000513          	li	a0,0
   1341c:	00008067          	ret

0000000000013420 <_cleanup_r>:
   13420:	00009597          	auipc	a1,0x9
   13424:	71058593          	addi	a1,a1,1808 # 1cb30 <_fclose_r>
   13428:	0ad0006f          	j	13cd4 <_fwalk_reent>

000000000001342c <__sinit.part.0>:
   1342c:	fc010113          	addi	sp,sp,-64
   13430:	02113c23          	sd	ra,56(sp)
   13434:	02813823          	sd	s0,48(sp)
   13438:	02913423          	sd	s1,40(sp)
   1343c:	03213023          	sd	s2,32(sp)
   13440:	01313c23          	sd	s3,24(sp)
   13444:	01413823          	sd	s4,16(sp)
   13448:	01513423          	sd	s5,8(sp)
   1344c:	01613023          	sd	s6,0(sp)
   13450:	00853403          	ld	s0,8(a0)
   13454:	00000717          	auipc	a4,0x0
   13458:	fcc70713          	addi	a4,a4,-52 # 13420 <_cleanup_r>
   1345c:	04e53c23          	sd	a4,88(a0)
   13460:	53850793          	addi	a5,a0,1336
   13464:	00300713          	li	a4,3
   13468:	52e52423          	sw	a4,1320(a0)
   1346c:	52f53823          	sd	a5,1328(a0)
   13470:	52053023          	sd	zero,1312(a0)
   13474:	00400793          	li	a5,4
   13478:	00050913          	mv	s2,a0
   1347c:	00f42823          	sw	a5,16(s0)
   13480:	00800613          	li	a2,8
   13484:	00000593          	li	a1,0
   13488:	0a042623          	sw	zero,172(s0)
   1348c:	00043023          	sd	zero,0(s0)
   13490:	00043423          	sd	zero,8(s0)
   13494:	00043c23          	sd	zero,24(s0)
   13498:	02042023          	sw	zero,32(s0)
   1349c:	02042423          	sw	zero,40(s0)
   134a0:	0a440513          	addi	a0,s0,164
   134a4:	fb1fc0ef          	jal	ra,10454 <memset>
   134a8:	01093483          	ld	s1,16(s2)
   134ac:	00005b17          	auipc	s6,0x5
   134b0:	498b0b13          	addi	s6,s6,1176 # 18944 <__sread>
   134b4:	00005a97          	auipc	s5,0x5
   134b8:	4f4a8a93          	addi	s5,s5,1268 # 189a8 <__swrite>
   134bc:	00005a17          	auipc	s4,0x5
   134c0:	574a0a13          	addi	s4,s4,1396 # 18a30 <__sseek>
   134c4:	00005997          	auipc	s3,0x5
   134c8:	5d498993          	addi	s3,s3,1492 # 18a98 <__sclose>
   134cc:	000107b7          	lui	a5,0x10
   134d0:	03643c23          	sd	s6,56(s0)
   134d4:	05543023          	sd	s5,64(s0)
   134d8:	05443423          	sd	s4,72(s0)
   134dc:	05343823          	sd	s3,80(s0)
   134e0:	02843823          	sd	s0,48(s0)
   134e4:	00978793          	addi	a5,a5,9 # 10009 <register_fini-0xa7>
   134e8:	00f4a823          	sw	a5,16(s1)
   134ec:	00800613          	li	a2,8
   134f0:	00000593          	li	a1,0
   134f4:	0a04a623          	sw	zero,172(s1)
   134f8:	0004b023          	sd	zero,0(s1)
   134fc:	0004b423          	sd	zero,8(s1)
   13500:	0004bc23          	sd	zero,24(s1)
   13504:	0204a023          	sw	zero,32(s1)
   13508:	0204a423          	sw	zero,40(s1)
   1350c:	0a448513          	addi	a0,s1,164
   13510:	f45fc0ef          	jal	ra,10454 <memset>
   13514:	01893403          	ld	s0,24(s2)
   13518:	000207b7          	lui	a5,0x20
   1351c:	0364bc23          	sd	s6,56(s1)
   13520:	0554b023          	sd	s5,64(s1)
   13524:	0544b423          	sd	s4,72(s1)
   13528:	0534b823          	sd	s3,80(s1)
   1352c:	0294b823          	sd	s1,48(s1)
   13530:	01278793          	addi	a5,a5,18 # 20012 <__multf3+0x126>
   13534:	00f42823          	sw	a5,16(s0)
   13538:	0a042623          	sw	zero,172(s0)
   1353c:	00043023          	sd	zero,0(s0)
   13540:	00043423          	sd	zero,8(s0)
   13544:	00043c23          	sd	zero,24(s0)
   13548:	02042023          	sw	zero,32(s0)
   1354c:	02042423          	sw	zero,40(s0)
   13550:	0a440513          	addi	a0,s0,164
   13554:	00800613          	li	a2,8
   13558:	00000593          	li	a1,0
   1355c:	ef9fc0ef          	jal	ra,10454 <memset>
   13560:	03813083          	ld	ra,56(sp)
   13564:	03643c23          	sd	s6,56(s0)
   13568:	05543023          	sd	s5,64(s0)
   1356c:	05443423          	sd	s4,72(s0)
   13570:	05343823          	sd	s3,80(s0)
   13574:	02843823          	sd	s0,48(s0)
   13578:	03013403          	ld	s0,48(sp)
   1357c:	00100793          	li	a5,1
   13580:	04f92823          	sw	a5,80(s2)
   13584:	02813483          	ld	s1,40(sp)
   13588:	02013903          	ld	s2,32(sp)
   1358c:	01813983          	ld	s3,24(sp)
   13590:	01013a03          	ld	s4,16(sp)
   13594:	00813a83          	ld	s5,8(sp)
   13598:	00013b03          	ld	s6,0(sp)
   1359c:	04010113          	addi	sp,sp,64
   135a0:	00008067          	ret

00000000000135a4 <__fp_unlock>:
   135a4:	00000513          	li	a0,0
   135a8:	00008067          	ret

00000000000135ac <__sfmoreglue>:
   135ac:	fe010113          	addi	sp,sp,-32
   135b0:	fff5861b          	addiw	a2,a1,-1
   135b4:	00813823          	sd	s0,16(sp)
   135b8:	00161413          	slli	s0,a2,0x1
   135bc:	00c40433          	add	s0,s0,a2
   135c0:	00241413          	slli	s0,s0,0x2
   135c4:	40c40433          	sub	s0,s0,a2
   135c8:	00441413          	slli	s0,s0,0x4
   135cc:	01213023          	sd	s2,0(sp)
   135d0:	00058913          	mv	s2,a1
   135d4:	0c840593          	addi	a1,s0,200
   135d8:	00913423          	sd	s1,8(sp)
   135dc:	00113c23          	sd	ra,24(sp)
   135e0:	630030ef          	jal	ra,16c10 <_malloc_r>
   135e4:	00050493          	mv	s1,a0
   135e8:	02050063          	beqz	a0,13608 <__sfmoreglue+0x5c>
   135ec:	01850513          	addi	a0,a0,24
   135f0:	0004b023          	sd	zero,0(s1)
   135f4:	0124a423          	sw	s2,8(s1)
   135f8:	00a4b823          	sd	a0,16(s1)
   135fc:	0b040613          	addi	a2,s0,176
   13600:	00000593          	li	a1,0
   13604:	e51fc0ef          	jal	ra,10454 <memset>
   13608:	01813083          	ld	ra,24(sp)
   1360c:	01013403          	ld	s0,16(sp)
   13610:	00048513          	mv	a0,s1
   13614:	00013903          	ld	s2,0(sp)
   13618:	00813483          	ld	s1,8(sp)
   1361c:	02010113          	addi	sp,sp,32
   13620:	00008067          	ret

0000000000013624 <__sfp>:
   13624:	fd010113          	addi	sp,sp,-48
   13628:	74818793          	addi	a5,gp,1864 # 23150 <_global_impure_ptr>
   1362c:	01213823          	sd	s2,16(sp)
   13630:	0007b903          	ld	s2,0(a5)
   13634:	01313423          	sd	s3,8(sp)
   13638:	02113423          	sd	ra,40(sp)
   1363c:	05092783          	lw	a5,80(s2)
   13640:	02813023          	sd	s0,32(sp)
   13644:	00913c23          	sd	s1,24(sp)
   13648:	00050993          	mv	s3,a0
   1364c:	0a078463          	beqz	a5,136f4 <__sfp+0xd0>
   13650:	52090913          	addi	s2,s2,1312
   13654:	fff00493          	li	s1,-1
   13658:	00892783          	lw	a5,8(s2)
   1365c:	01093403          	ld	s0,16(s2)
   13660:	fff7879b          	addiw	a5,a5,-1
   13664:	0007da63          	bgez	a5,13678 <__sfp+0x54>
   13668:	07c0006f          	j	136e4 <__sfp+0xc0>
   1366c:	fff7879b          	addiw	a5,a5,-1
   13670:	0b040413          	addi	s0,s0,176
   13674:	06978863          	beq	a5,s1,136e4 <__sfp+0xc0>
   13678:	01041703          	lh	a4,16(s0)
   1367c:	fe0718e3          	bnez	a4,1366c <__sfp+0x48>
   13680:	ffff07b7          	lui	a5,0xffff0
   13684:	00178793          	addi	a5,a5,1 # ffffffffffff0001 <__BSS_END__+0xfffffffffffccdf9>
   13688:	0a042623          	sw	zero,172(s0)
   1368c:	00043023          	sd	zero,0(s0)
   13690:	00043423          	sd	zero,8(s0)
   13694:	00f42823          	sw	a5,16(s0)
   13698:	00043c23          	sd	zero,24(s0)
   1369c:	02042023          	sw	zero,32(s0)
   136a0:	02042423          	sw	zero,40(s0)
   136a4:	00800613          	li	a2,8
   136a8:	00000593          	li	a1,0
   136ac:	0a440513          	addi	a0,s0,164
   136b0:	da5fc0ef          	jal	ra,10454 <memset>
   136b4:	04043c23          	sd	zero,88(s0)
   136b8:	06042023          	sw	zero,96(s0)
   136bc:	06043c23          	sd	zero,120(s0)
   136c0:	08042023          	sw	zero,128(s0)
   136c4:	00040513          	mv	a0,s0
   136c8:	02813083          	ld	ra,40(sp)
   136cc:	02013403          	ld	s0,32(sp)
   136d0:	01813483          	ld	s1,24(sp)
   136d4:	01013903          	ld	s2,16(sp)
   136d8:	00813983          	ld	s3,8(sp)
   136dc:	03010113          	addi	sp,sp,48
   136e0:	00008067          	ret
   136e4:	00093403          	ld	s0,0(s2)
   136e8:	00040c63          	beqz	s0,13700 <__sfp+0xdc>
   136ec:	00040913          	mv	s2,s0
   136f0:	f69ff06f          	j	13658 <__sfp+0x34>
   136f4:	00090513          	mv	a0,s2
   136f8:	d35ff0ef          	jal	ra,1342c <__sinit.part.0>
   136fc:	f55ff06f          	j	13650 <__sfp+0x2c>
   13700:	00400593          	li	a1,4
   13704:	00098513          	mv	a0,s3
   13708:	ea5ff0ef          	jal	ra,135ac <__sfmoreglue>
   1370c:	00a93023          	sd	a0,0(s2)
   13710:	00050413          	mv	s0,a0
   13714:	fc051ce3          	bnez	a0,136ec <__sfp+0xc8>
   13718:	00c00793          	li	a5,12
   1371c:	00f9a023          	sw	a5,0(s3)
   13720:	fa5ff06f          	j	136c4 <__sfp+0xa0>

0000000000013724 <_cleanup>:
   13724:	74818793          	addi	a5,gp,1864 # 23150 <_global_impure_ptr>
   13728:	0007b503          	ld	a0,0(a5)
   1372c:	00009597          	auipc	a1,0x9
   13730:	40458593          	addi	a1,a1,1028 # 1cb30 <_fclose_r>
   13734:	5a00006f          	j	13cd4 <_fwalk_reent>

0000000000013738 <__sinit>:
   13738:	05052783          	lw	a5,80(a0)
   1373c:	00078463          	beqz	a5,13744 <__sinit+0xc>
   13740:	00008067          	ret
   13744:	ce9ff06f          	j	1342c <__sinit.part.0>

0000000000013748 <__sfp_lock_acquire>:
   13748:	00008067          	ret

000000000001374c <__sfp_lock_release>:
   1374c:	00008067          	ret

0000000000013750 <__sinit_lock_acquire>:
   13750:	00008067          	ret

0000000000013754 <__sinit_lock_release>:
   13754:	00008067          	ret

0000000000013758 <__fp_lock_all>:
   13758:	75818793          	addi	a5,gp,1880 # 23160 <_impure_ptr>
   1375c:	0007b503          	ld	a0,0(a5)
   13760:	00000597          	auipc	a1,0x0
   13764:	cb858593          	addi	a1,a1,-840 # 13418 <__fp_lock>
   13768:	4980006f          	j	13c00 <_fwalk>

000000000001376c <__fp_unlock_all>:
   1376c:	75818793          	addi	a5,gp,1880 # 23160 <_impure_ptr>
   13770:	0007b503          	ld	a0,0(a5)
   13774:	00000597          	auipc	a1,0x0
   13778:	e3058593          	addi	a1,a1,-464 # 135a4 <__fp_unlock>
   1377c:	4840006f          	j	13c00 <_fwalk>

0000000000013780 <_malloc_trim_r>:
   13780:	fd010113          	addi	sp,sp,-48
   13784:	02813023          	sd	s0,32(sp)
   13788:	00913c23          	sd	s1,24(sp)
   1378c:	01213823          	sd	s2,16(sp)
   13790:	01313423          	sd	s3,8(sp)
   13794:	00058413          	mv	s0,a1
   13798:	02113423          	sd	ra,40(sp)
   1379c:	0000f997          	auipc	s3,0xf
   137a0:	17498993          	addi	s3,s3,372 # 22910 <__malloc_av_>
   137a4:	00050913          	mv	s2,a0
   137a8:	625030ef          	jal	ra,175cc <__malloc_lock>
   137ac:	0109b683          	ld	a3,16(s3)
   137b0:	00001737          	lui	a4,0x1
   137b4:	fdf70793          	addi	a5,a4,-33 # fdf <register_fini-0xf0d1>
   137b8:	0086b483          	ld	s1,8(a3)
   137bc:	40878433          	sub	s0,a5,s0
   137c0:	ffc4f493          	andi	s1,s1,-4
   137c4:	00940433          	add	s0,s0,s1
   137c8:	00c45413          	srli	s0,s0,0xc
   137cc:	fff40413          	addi	s0,s0,-1
   137d0:	00c41413          	slli	s0,s0,0xc
   137d4:	00e44e63          	blt	s0,a4,137f0 <_malloc_trim_r+0x70>
   137d8:	00000593          	li	a1,0
   137dc:	00090513          	mv	a0,s2
   137e0:	75d040ef          	jal	ra,1873c <_sbrk_r>
   137e4:	0109b783          	ld	a5,16(s3)
   137e8:	009787b3          	add	a5,a5,s1
   137ec:	02f50663          	beq	a0,a5,13818 <_malloc_trim_r+0x98>
   137f0:	00090513          	mv	a0,s2
   137f4:	5dd030ef          	jal	ra,175d0 <__malloc_unlock>
   137f8:	02813083          	ld	ra,40(sp)
   137fc:	02013403          	ld	s0,32(sp)
   13800:	01813483          	ld	s1,24(sp)
   13804:	01013903          	ld	s2,16(sp)
   13808:	00813983          	ld	s3,8(sp)
   1380c:	00000513          	li	a0,0
   13810:	03010113          	addi	sp,sp,48
   13814:	00008067          	ret
   13818:	408005b3          	neg	a1,s0
   1381c:	00090513          	mv	a0,s2
   13820:	71d040ef          	jal	ra,1873c <_sbrk_r>
   13824:	fff00793          	li	a5,-1
   13828:	04f50a63          	beq	a0,a5,1387c <_malloc_trim_r+0xfc>
   1382c:	00010797          	auipc	a5,0x10
   13830:	9ac78793          	addi	a5,a5,-1620 # 231d8 <__malloc_current_mallinfo>
   13834:	0007a783          	lw	a5,0(a5)
   13838:	0109b703          	ld	a4,16(s3)
   1383c:	408484b3          	sub	s1,s1,s0
   13840:	0014e493          	ori	s1,s1,1
   13844:	4087843b          	subw	s0,a5,s0
   13848:	00090513          	mv	a0,s2
   1384c:	00973423          	sd	s1,8(a4)
   13850:	00010797          	auipc	a5,0x10
   13854:	9887a423          	sw	s0,-1656(a5) # 231d8 <__malloc_current_mallinfo>
   13858:	579030ef          	jal	ra,175d0 <__malloc_unlock>
   1385c:	02813083          	ld	ra,40(sp)
   13860:	02013403          	ld	s0,32(sp)
   13864:	01813483          	ld	s1,24(sp)
   13868:	01013903          	ld	s2,16(sp)
   1386c:	00813983          	ld	s3,8(sp)
   13870:	00100513          	li	a0,1
   13874:	03010113          	addi	sp,sp,48
   13878:	00008067          	ret
   1387c:	00000593          	li	a1,0
   13880:	00090513          	mv	a0,s2
   13884:	6b9040ef          	jal	ra,1873c <_sbrk_r>
   13888:	0109b703          	ld	a4,16(s3)
   1388c:	01f00693          	li	a3,31
   13890:	40e507b3          	sub	a5,a0,a4
   13894:	f4f6dee3          	bge	a3,a5,137f0 <_malloc_trim_r+0x70>
   13898:	76018693          	addi	a3,gp,1888 # 23168 <__malloc_sbrk_base>
   1389c:	0006b683          	ld	a3,0(a3)
   138a0:	0017e793          	ori	a5,a5,1
   138a4:	00f73423          	sd	a5,8(a4)
   138a8:	40d50533          	sub	a0,a0,a3
   138ac:	00010797          	auipc	a5,0x10
   138b0:	92a7a623          	sw	a0,-1748(a5) # 231d8 <__malloc_current_mallinfo>
   138b4:	f3dff06f          	j	137f0 <_malloc_trim_r+0x70>

00000000000138b8 <_free_r>:
   138b8:	14058263          	beqz	a1,139fc <_free_r+0x144>
   138bc:	fe010113          	addi	sp,sp,-32
   138c0:	00813823          	sd	s0,16(sp)
   138c4:	00913423          	sd	s1,8(sp)
   138c8:	00058413          	mv	s0,a1
   138cc:	00050493          	mv	s1,a0
   138d0:	00113c23          	sd	ra,24(sp)
   138d4:	4f9030ef          	jal	ra,175cc <__malloc_lock>
   138d8:	ff843583          	ld	a1,-8(s0)
   138dc:	ff040713          	addi	a4,s0,-16
   138e0:	0000f517          	auipc	a0,0xf
   138e4:	03050513          	addi	a0,a0,48 # 22910 <__malloc_av_>
   138e8:	ffe5f793          	andi	a5,a1,-2
   138ec:	00f70633          	add	a2,a4,a5
   138f0:	00863683          	ld	a3,8(a2)
   138f4:	01053803          	ld	a6,16(a0)
   138f8:	ffc6f693          	andi	a3,a3,-4
   138fc:	1ac80c63          	beq	a6,a2,13ab4 <_free_r+0x1fc>
   13900:	00d63423          	sd	a3,8(a2)
   13904:	0015f593          	andi	a1,a1,1
   13908:	00d60833          	add	a6,a2,a3
   1390c:	0a059863          	bnez	a1,139bc <_free_r+0x104>
   13910:	ff043303          	ld	t1,-16(s0)
   13914:	00883583          	ld	a1,8(a6)
   13918:	0000f897          	auipc	a7,0xf
   1391c:	00888893          	addi	a7,a7,8 # 22920 <__malloc_av_+0x10>
   13920:	40670733          	sub	a4,a4,t1
   13924:	01073803          	ld	a6,16(a4)
   13928:	006787b3          	add	a5,a5,t1
   1392c:	0015f593          	andi	a1,a1,1
   13930:	15180c63          	beq	a6,a7,13a88 <_free_r+0x1d0>
   13934:	01873303          	ld	t1,24(a4)
   13938:	00683c23          	sd	t1,24(a6)
   1393c:	01033823          	sd	a6,16(t1)
   13940:	1e058c63          	beqz	a1,13b38 <_free_r+0x280>
   13944:	0017e693          	ori	a3,a5,1
   13948:	00d73423          	sd	a3,8(a4)
   1394c:	00f63023          	sd	a5,0(a2)
   13950:	1ff00693          	li	a3,511
   13954:	0cf6e063          	bltu	a3,a5,13a14 <_free_r+0x15c>
   13958:	0037d793          	srli	a5,a5,0x3
   1395c:	0007879b          	sext.w	a5,a5
   13960:	0017869b          	addiw	a3,a5,1
   13964:	0016969b          	slliw	a3,a3,0x1
   13968:	00369693          	slli	a3,a3,0x3
   1396c:	00853583          	ld	a1,8(a0)
   13970:	00d50533          	add	a0,a0,a3
   13974:	00053603          	ld	a2,0(a0)
   13978:	00100693          	li	a3,1
   1397c:	4027d79b          	sraiw	a5,a5,0x2
   13980:	00f697b3          	sll	a5,a3,a5
   13984:	00b7e7b3          	or	a5,a5,a1
   13988:	ff050693          	addi	a3,a0,-16
   1398c:	00d73c23          	sd	a3,24(a4)
   13990:	00c73823          	sd	a2,16(a4)
   13994:	0000f697          	auipc	a3,0xf
   13998:	f8f6b223          	sd	a5,-124(a3) # 22918 <__malloc_av_+0x8>
   1399c:	00e53023          	sd	a4,0(a0)
   139a0:	00e63c23          	sd	a4,24(a2)
   139a4:	01013403          	ld	s0,16(sp)
   139a8:	01813083          	ld	ra,24(sp)
   139ac:	00048513          	mv	a0,s1
   139b0:	00813483          	ld	s1,8(sp)
   139b4:	02010113          	addi	sp,sp,32
   139b8:	4190306f          	j	175d0 <__malloc_unlock>
   139bc:	00883583          	ld	a1,8(a6)
   139c0:	0015f593          	andi	a1,a1,1
   139c4:	02059e63          	bnez	a1,13a00 <_free_r+0x148>
   139c8:	00d787b3          	add	a5,a5,a3
   139cc:	0000f897          	auipc	a7,0xf
   139d0:	f5488893          	addi	a7,a7,-172 # 22920 <__malloc_av_+0x10>
   139d4:	01063683          	ld	a3,16(a2)
   139d8:	0017e813          	ori	a6,a5,1
   139dc:	00f705b3          	add	a1,a4,a5
   139e0:	17168c63          	beq	a3,a7,13b58 <_free_r+0x2a0>
   139e4:	01863603          	ld	a2,24(a2)
   139e8:	00c6bc23          	sd	a2,24(a3)
   139ec:	00d63823          	sd	a3,16(a2)
   139f0:	01073423          	sd	a6,8(a4)
   139f4:	00f5b023          	sd	a5,0(a1)
   139f8:	f59ff06f          	j	13950 <_free_r+0x98>
   139fc:	00008067          	ret
   13a00:	0017e693          	ori	a3,a5,1
   13a04:	fed43c23          	sd	a3,-8(s0)
   13a08:	00f63023          	sd	a5,0(a2)
   13a0c:	1ff00693          	li	a3,511
   13a10:	f4f6f4e3          	bgeu	a3,a5,13958 <_free_r+0xa0>
   13a14:	0097d693          	srli	a3,a5,0x9
   13a18:	00400613          	li	a2,4
   13a1c:	0ed66863          	bltu	a2,a3,13b0c <_free_r+0x254>
   13a20:	0067d693          	srli	a3,a5,0x6
   13a24:	0006869b          	sext.w	a3,a3
   13a28:	0396859b          	addiw	a1,a3,57
   13a2c:	0015959b          	slliw	a1,a1,0x1
   13a30:	0386861b          	addiw	a2,a3,56
   13a34:	00359593          	slli	a1,a1,0x3
   13a38:	00b505b3          	add	a1,a0,a1
   13a3c:	0005b683          	ld	a3,0(a1)
   13a40:	ff058593          	addi	a1,a1,-16
   13a44:	12d58c63          	beq	a1,a3,13b7c <_free_r+0x2c4>
   13a48:	0086b603          	ld	a2,8(a3)
   13a4c:	ffc67613          	andi	a2,a2,-4
   13a50:	00c7f663          	bgeu	a5,a2,13a5c <_free_r+0x1a4>
   13a54:	0106b683          	ld	a3,16(a3)
   13a58:	fed598e3          	bne	a1,a3,13a48 <_free_r+0x190>
   13a5c:	0186b583          	ld	a1,24(a3)
   13a60:	00b73c23          	sd	a1,24(a4)
   13a64:	00d73823          	sd	a3,16(a4)
   13a68:	01013403          	ld	s0,16(sp)
   13a6c:	00e5b823          	sd	a4,16(a1)
   13a70:	01813083          	ld	ra,24(sp)
   13a74:	00048513          	mv	a0,s1
   13a78:	00813483          	ld	s1,8(sp)
   13a7c:	00e6bc23          	sd	a4,24(a3)
   13a80:	02010113          	addi	sp,sp,32
   13a84:	34d0306f          	j	175d0 <__malloc_unlock>
   13a88:	16059463          	bnez	a1,13bf0 <_free_r+0x338>
   13a8c:	01063583          	ld	a1,16(a2)
   13a90:	01863603          	ld	a2,24(a2)
   13a94:	00f687b3          	add	a5,a3,a5
   13a98:	0017e693          	ori	a3,a5,1
   13a9c:	00c5bc23          	sd	a2,24(a1)
   13aa0:	00b63823          	sd	a1,16(a2)
   13aa4:	00d73423          	sd	a3,8(a4)
   13aa8:	00f70733          	add	a4,a4,a5
   13aac:	00f73023          	sd	a5,0(a4)
   13ab0:	ef5ff06f          	j	139a4 <_free_r+0xec>
   13ab4:	0015f593          	andi	a1,a1,1
   13ab8:	00d787b3          	add	a5,a5,a3
   13abc:	02059063          	bnez	a1,13adc <_free_r+0x224>
   13ac0:	ff043583          	ld	a1,-16(s0)
   13ac4:	40b70733          	sub	a4,a4,a1
   13ac8:	01873683          	ld	a3,24(a4)
   13acc:	01073603          	ld	a2,16(a4)
   13ad0:	00b787b3          	add	a5,a5,a1
   13ad4:	00d63c23          	sd	a3,24(a2)
   13ad8:	00c6b823          	sd	a2,16(a3)
   13adc:	76818693          	addi	a3,gp,1896 # 23170 <__malloc_trim_threshold>
   13ae0:	0017e613          	ori	a2,a5,1
   13ae4:	0006b683          	ld	a3,0(a3)
   13ae8:	00c73423          	sd	a2,8(a4)
   13aec:	0000f617          	auipc	a2,0xf
   13af0:	e2e63a23          	sd	a4,-460(a2) # 22920 <__malloc_av_+0x10>
   13af4:	ead7e8e3          	bltu	a5,a3,139a4 <_free_r+0xec>
   13af8:	78818793          	addi	a5,gp,1928 # 23190 <__malloc_top_pad>
   13afc:	0007b583          	ld	a1,0(a5)
   13b00:	00048513          	mv	a0,s1
   13b04:	c7dff0ef          	jal	ra,13780 <_malloc_trim_r>
   13b08:	e9dff06f          	j	139a4 <_free_r+0xec>
   13b0c:	01400613          	li	a2,20
   13b10:	02d67863          	bgeu	a2,a3,13b40 <_free_r+0x288>
   13b14:	05400613          	li	a2,84
   13b18:	08d66263          	bltu	a2,a3,13b9c <_free_r+0x2e4>
   13b1c:	00c7d693          	srli	a3,a5,0xc
   13b20:	0006869b          	sext.w	a3,a3
   13b24:	06f6859b          	addiw	a1,a3,111
   13b28:	0015959b          	slliw	a1,a1,0x1
   13b2c:	06e6861b          	addiw	a2,a3,110
   13b30:	00359593          	slli	a1,a1,0x3
   13b34:	f05ff06f          	j	13a38 <_free_r+0x180>
   13b38:	00d787b3          	add	a5,a5,a3
   13b3c:	e99ff06f          	j	139d4 <_free_r+0x11c>
   13b40:	0006869b          	sext.w	a3,a3
   13b44:	05c6859b          	addiw	a1,a3,92
   13b48:	0015959b          	slliw	a1,a1,0x1
   13b4c:	05b6861b          	addiw	a2,a3,91
   13b50:	00359593          	slli	a1,a1,0x3
   13b54:	ee5ff06f          	j	13a38 <_free_r+0x180>
   13b58:	0000f697          	auipc	a3,0xf
   13b5c:	dee6b023          	sd	a4,-544(a3) # 22938 <__malloc_av_+0x28>
   13b60:	0000f697          	auipc	a3,0xf
   13b64:	dce6b823          	sd	a4,-560(a3) # 22930 <__malloc_av_+0x20>
   13b68:	01173c23          	sd	a7,24(a4)
   13b6c:	01173823          	sd	a7,16(a4)
   13b70:	01073423          	sd	a6,8(a4)
   13b74:	00f5b023          	sd	a5,0(a1)
   13b78:	e2dff06f          	j	139a4 <_free_r+0xec>
   13b7c:	00853503          	ld	a0,8(a0)
   13b80:	00100793          	li	a5,1
   13b84:	4026561b          	sraiw	a2,a2,0x2
   13b88:	00c79633          	sll	a2,a5,a2
   13b8c:	00a66633          	or	a2,a2,a0
   13b90:	0000f797          	auipc	a5,0xf
   13b94:	d8c7b423          	sd	a2,-632(a5) # 22918 <__malloc_av_+0x8>
   13b98:	ec9ff06f          	j	13a60 <_free_r+0x1a8>
   13b9c:	15400613          	li	a2,340
   13ba0:	02d66063          	bltu	a2,a3,13bc0 <_free_r+0x308>
   13ba4:	00f7d693          	srli	a3,a5,0xf
   13ba8:	0006869b          	sext.w	a3,a3
   13bac:	0786859b          	addiw	a1,a3,120
   13bb0:	0015959b          	slliw	a1,a1,0x1
   13bb4:	0776861b          	addiw	a2,a3,119
   13bb8:	00359593          	slli	a1,a1,0x3
   13bbc:	e7dff06f          	j	13a38 <_free_r+0x180>
   13bc0:	55400613          	li	a2,1364
   13bc4:	02d66063          	bltu	a2,a3,13be4 <_free_r+0x32c>
   13bc8:	0127d693          	srli	a3,a5,0x12
   13bcc:	0006869b          	sext.w	a3,a3
   13bd0:	07d6859b          	addiw	a1,a3,125
   13bd4:	0015959b          	slliw	a1,a1,0x1
   13bd8:	07c6861b          	addiw	a2,a3,124
   13bdc:	00359593          	slli	a1,a1,0x3
   13be0:	e59ff06f          	j	13a38 <_free_r+0x180>
   13be4:	7f000593          	li	a1,2032
   13be8:	07e00613          	li	a2,126
   13bec:	e4dff06f          	j	13a38 <_free_r+0x180>
   13bf0:	0017e693          	ori	a3,a5,1
   13bf4:	00d73423          	sd	a3,8(a4)
   13bf8:	00f63023          	sd	a5,0(a2)
   13bfc:	da9ff06f          	j	139a4 <_free_r+0xec>

0000000000013c00 <_fwalk>:
   13c00:	fc010113          	addi	sp,sp,-64
   13c04:	01313c23          	sd	s3,24(sp)
   13c08:	02113c23          	sd	ra,56(sp)
   13c0c:	02813823          	sd	s0,48(sp)
   13c10:	02913423          	sd	s1,40(sp)
   13c14:	03213023          	sd	s2,32(sp)
   13c18:	01413823          	sd	s4,16(sp)
   13c1c:	01513423          	sd	s5,8(sp)
   13c20:	01613023          	sd	s6,0(sp)
   13c24:	52050993          	addi	s3,a0,1312
   13c28:	0a098263          	beqz	s3,13ccc <_fwalk+0xcc>
   13c2c:	00058a93          	mv	s5,a1
   13c30:	00000913          	li	s2,0
   13c34:	00100b13          	li	s6,1
   13c38:	fff00a13          	li	s4,-1
   13c3c:	0089a783          	lw	a5,8(s3)
   13c40:	0109b403          	ld	s0,16(s3)
   13c44:	04f05a63          	blez	a5,13c98 <_fwalk+0x98>
   13c48:	fff7879b          	addiw	a5,a5,-1
   13c4c:	02079493          	slli	s1,a5,0x20
   13c50:	0204d493          	srli	s1,s1,0x20
   13c54:	00148793          	addi	a5,s1,1
   13c58:	00179493          	slli	s1,a5,0x1
   13c5c:	00f484b3          	add	s1,s1,a5
   13c60:	00249493          	slli	s1,s1,0x2
   13c64:	40f484b3          	sub	s1,s1,a5
   13c68:	00449493          	slli	s1,s1,0x4
   13c6c:	009404b3          	add	s1,s0,s1
   13c70:	01045783          	lhu	a5,16(s0)
   13c74:	00fb7e63          	bgeu	s6,a5,13c90 <_fwalk+0x90>
   13c78:	01241783          	lh	a5,18(s0)
   13c7c:	00040513          	mv	a0,s0
   13c80:	01478863          	beq	a5,s4,13c90 <_fwalk+0x90>
   13c84:	000a80e7          	jalr	s5
   13c88:	01256933          	or	s2,a0,s2
   13c8c:	0009091b          	sext.w	s2,s2
   13c90:	0b040413          	addi	s0,s0,176
   13c94:	fc941ee3          	bne	s0,s1,13c70 <_fwalk+0x70>
   13c98:	0009b983          	ld	s3,0(s3)
   13c9c:	fa0990e3          	bnez	s3,13c3c <_fwalk+0x3c>
   13ca0:	03813083          	ld	ra,56(sp)
   13ca4:	03013403          	ld	s0,48(sp)
   13ca8:	00090513          	mv	a0,s2
   13cac:	02813483          	ld	s1,40(sp)
   13cb0:	02013903          	ld	s2,32(sp)
   13cb4:	01813983          	ld	s3,24(sp)
   13cb8:	01013a03          	ld	s4,16(sp)
   13cbc:	00813a83          	ld	s5,8(sp)
   13cc0:	00013b03          	ld	s6,0(sp)
   13cc4:	04010113          	addi	sp,sp,64
   13cc8:	00008067          	ret
   13ccc:	00000913          	li	s2,0
   13cd0:	fd1ff06f          	j	13ca0 <_fwalk+0xa0>

0000000000013cd4 <_fwalk_reent>:
   13cd4:	fb010113          	addi	sp,sp,-80
   13cd8:	03213823          	sd	s2,48(sp)
   13cdc:	04113423          	sd	ra,72(sp)
   13ce0:	04813023          	sd	s0,64(sp)
   13ce4:	02913c23          	sd	s1,56(sp)
   13ce8:	03313423          	sd	s3,40(sp)
   13cec:	03413023          	sd	s4,32(sp)
   13cf0:	01513c23          	sd	s5,24(sp)
   13cf4:	01613823          	sd	s6,16(sp)
   13cf8:	01713423          	sd	s7,8(sp)
   13cfc:	52050913          	addi	s2,a0,1312
   13d00:	0a090863          	beqz	s2,13db0 <_fwalk_reent+0xdc>
   13d04:	00058a93          	mv	s5,a1
   13d08:	00050993          	mv	s3,a0
   13d0c:	00000b13          	li	s6,0
   13d10:	00100b93          	li	s7,1
   13d14:	fff00a13          	li	s4,-1
   13d18:	00892783          	lw	a5,8(s2)
   13d1c:	01093403          	ld	s0,16(s2)
   13d20:	04f05c63          	blez	a5,13d78 <_fwalk_reent+0xa4>
   13d24:	fff7879b          	addiw	a5,a5,-1
   13d28:	02079493          	slli	s1,a5,0x20
   13d2c:	0204d493          	srli	s1,s1,0x20
   13d30:	00148793          	addi	a5,s1,1
   13d34:	00179493          	slli	s1,a5,0x1
   13d38:	00f484b3          	add	s1,s1,a5
   13d3c:	00249493          	slli	s1,s1,0x2
   13d40:	40f484b3          	sub	s1,s1,a5
   13d44:	00449493          	slli	s1,s1,0x4
   13d48:	009404b3          	add	s1,s0,s1
   13d4c:	01045783          	lhu	a5,16(s0)
   13d50:	02fbf063          	bgeu	s7,a5,13d70 <_fwalk_reent+0x9c>
   13d54:	01241783          	lh	a5,18(s0)
   13d58:	00040593          	mv	a1,s0
   13d5c:	00098513          	mv	a0,s3
   13d60:	01478863          	beq	a5,s4,13d70 <_fwalk_reent+0x9c>
   13d64:	000a80e7          	jalr	s5
   13d68:	01656b33          	or	s6,a0,s6
   13d6c:	000b0b1b          	sext.w	s6,s6
   13d70:	0b040413          	addi	s0,s0,176
   13d74:	fc941ce3          	bne	s0,s1,13d4c <_fwalk_reent+0x78>
   13d78:	00093903          	ld	s2,0(s2)
   13d7c:	f8091ee3          	bnez	s2,13d18 <_fwalk_reent+0x44>
   13d80:	04813083          	ld	ra,72(sp)
   13d84:	04013403          	ld	s0,64(sp)
   13d88:	000b0513          	mv	a0,s6
   13d8c:	03813483          	ld	s1,56(sp)
   13d90:	03013903          	ld	s2,48(sp)
   13d94:	02813983          	ld	s3,40(sp)
   13d98:	02013a03          	ld	s4,32(sp)
   13d9c:	01813a83          	ld	s5,24(sp)
   13da0:	01013b03          	ld	s6,16(sp)
   13da4:	00813b83          	ld	s7,8(sp)
   13da8:	05010113          	addi	sp,sp,80
   13dac:	00008067          	ret
   13db0:	00000b13          	li	s6,0
   13db4:	fcdff06f          	j	13d80 <_fwalk_reent+0xac>

0000000000013db8 <eshdn1>:
   13db8:	00450693          	addi	a3,a0,4
   13dbc:	00000793          	li	a5,0
   13dc0:	01a50513          	addi	a0,a0,26
   13dc4:	ffff8837          	lui	a6,0xffff8
   13dc8:	01c0006f          	j	13de4 <eshdn1+0x2c>
   13dcc:	0017979b          	slliw	a5,a5,0x1
   13dd0:	00e69023          	sh	a4,0(a3)
   13dd4:	03079793          	slli	a5,a5,0x30
   13dd8:	00268693          	addi	a3,a3,2
   13ddc:	0307d793          	srli	a5,a5,0x30
   13de0:	02d50e63          	beq	a0,a3,13e1c <eshdn1+0x64>
   13de4:	0006d703          	lhu	a4,0(a3)
   13de8:	00177613          	andi	a2,a4,1
   13dec:	00060463          	beqz	a2,13df4 <eshdn1+0x3c>
   13df0:	0017e793          	ori	a5,a5,1
   13df4:	00175713          	srli	a4,a4,0x1
   13df8:	0027f613          	andi	a2,a5,2
   13dfc:	010765b3          	or	a1,a4,a6
   13e00:	fc0606e3          	beqz	a2,13dcc <eshdn1+0x14>
   13e04:	0017979b          	slliw	a5,a5,0x1
   13e08:	00b69023          	sh	a1,0(a3)
   13e0c:	03079793          	slli	a5,a5,0x30
   13e10:	00268693          	addi	a3,a3,2
   13e14:	0307d793          	srli	a5,a5,0x30
   13e18:	fcd516e3          	bne	a0,a3,13de4 <eshdn1+0x2c>
   13e1c:	00008067          	ret

0000000000013e20 <eshup1>:
   13e20:	01850693          	addi	a3,a0,24
   13e24:	00000713          	li	a4,0
   13e28:	00250513          	addi	a0,a0,2
   13e2c:	01c0006f          	j	13e48 <eshup1+0x28>
   13e30:	0017171b          	slliw	a4,a4,0x1
   13e34:	00f69023          	sh	a5,0(a3)
   13e38:	03071713          	slli	a4,a4,0x30
   13e3c:	ffe68693          	addi	a3,a3,-2
   13e40:	03075713          	srli	a4,a4,0x30
   13e44:	04d50663          	beq	a0,a3,13e90 <eshup1+0x70>
   13e48:	0006d783          	lhu	a5,0(a3)
   13e4c:	0107961b          	slliw	a2,a5,0x10
   13e50:	4106561b          	sraiw	a2,a2,0x10
   13e54:	02061593          	slli	a1,a2,0x20
   13e58:	0017979b          	slliw	a5,a5,0x1
   13e5c:	0005d463          	bgez	a1,13e64 <eshup1+0x44>
   13e60:	00176713          	ori	a4,a4,1
   13e64:	03079793          	slli	a5,a5,0x30
   13e68:	0307d793          	srli	a5,a5,0x30
   13e6c:	00277613          	andi	a2,a4,2
   13e70:	0017e593          	ori	a1,a5,1
   13e74:	fa060ee3          	beqz	a2,13e30 <eshup1+0x10>
   13e78:	0017171b          	slliw	a4,a4,0x1
   13e7c:	00b69023          	sh	a1,0(a3)
   13e80:	03071713          	slli	a4,a4,0x30
   13e84:	ffe68693          	addi	a3,a3,-2
   13e88:	03075713          	srli	a4,a4,0x30
   13e8c:	fad51ee3          	bne	a0,a3,13e48 <eshup1+0x28>
   13e90:	00008067          	ret

0000000000013e94 <m16m>:
   13e94:	fa010113          	addi	sp,sp,-96
   13e98:	03413823          	sd	s4,48(sp)
   13e9c:	00010a37          	lui	s4,0x10
   13ea0:	04813823          	sd	s0,80(sp)
   13ea4:	04913423          	sd	s1,72(sp)
   13ea8:	05213023          	sd	s2,64(sp)
   13eac:	03313c23          	sd	s3,56(sp)
   13eb0:	03513423          	sd	s5,40(sp)
   13eb4:	04113c23          	sd	ra,88(sp)
   13eb8:	00050a93          	mv	s5,a0
   13ebc:	00060493          	mv	s1,a2
   13ec0:	00011b23          	sh	zero,22(sp)
   13ec4:	00011c23          	sh	zero,24(sp)
   13ec8:	01858913          	addi	s2,a1,24
   13ecc:	01810413          	addi	s0,sp,24
   13ed0:	00410993          	addi	s3,sp,4
   13ed4:	fffa0a13          	addi	s4,s4,-1 # ffff <register_fini-0xb1>
   13ed8:	00095783          	lhu	a5,0(s2)
   13edc:	000a8593          	mv	a1,s5
   13ee0:	ffe40413          	addi	s0,s0,-2
   13ee4:	ffe90913          	addi	s2,s2,-2
   13ee8:	00078513          	mv	a0,a5
   13eec:	04079663          	bnez	a5,13f38 <m16m+0xa4>
   13ef0:	fe041f23          	sh	zero,-2(s0)
   13ef4:	ff3412e3          	bne	s0,s3,13ed8 <m16m+0x44>
   13ef8:	00448613          	addi	a2,s1,4
   13efc:	01a10713          	addi	a4,sp,26
   13f00:	00045783          	lhu	a5,0(s0)
   13f04:	00260613          	addi	a2,a2,2
   13f08:	00240413          	addi	s0,s0,2
   13f0c:	fef61f23          	sh	a5,-2(a2)
   13f10:	fee418e3          	bne	s0,a4,13f00 <m16m+0x6c>
   13f14:	05813083          	ld	ra,88(sp)
   13f18:	05013403          	ld	s0,80(sp)
   13f1c:	04813483          	ld	s1,72(sp)
   13f20:	04013903          	ld	s2,64(sp)
   13f24:	03813983          	ld	s3,56(sp)
   13f28:	03013a03          	ld	s4,48(sp)
   13f2c:	02813a83          	ld	s5,40(sp)
   13f30:	06010113          	addi	sp,sp,96
   13f34:	00008067          	ret
   13f38:	2480d0ef          	jal	ra,21180 <__muldi3>
   13f3c:	00245703          	lhu	a4,2(s0)
   13f40:	00045683          	lhu	a3,0(s0)
   13f44:	014577b3          	and	a5,a0,s4
   13f48:	00e787b3          	add	a5,a5,a4
   13f4c:	01055513          	srli	a0,a0,0x10
   13f50:	0107d713          	srli	a4,a5,0x10
   13f54:	00d50533          	add	a0,a0,a3
   13f58:	00e50533          	add	a0,a0,a4
   13f5c:	01055713          	srli	a4,a0,0x10
   13f60:	00f41123          	sh	a5,2(s0)
   13f64:	00a41023          	sh	a0,0(s0)
   13f68:	fee41f23          	sh	a4,-2(s0)
   13f6c:	f73416e3          	bne	s0,s3,13ed8 <m16m+0x44>
   13f70:	f89ff06f          	j	13ef8 <m16m+0x64>

0000000000013f74 <eisnan.part.0>:
   13f74:	01250713          	addi	a4,a0,18
   13f78:	00250513          	addi	a0,a0,2
   13f7c:	ffe55783          	lhu	a5,-2(a0)
   13f80:	00079863          	bnez	a5,13f90 <eisnan.part.0+0x1c>
   13f84:	fea71ae3          	bne	a4,a0,13f78 <eisnan.part.0+0x4>
   13f88:	00000513          	li	a0,0
   13f8c:	00008067          	ret
   13f90:	00100513          	li	a0,1
   13f94:	00008067          	ret

0000000000013f98 <eneg>:
   13f98:	fe010113          	addi	sp,sp,-32
   13f9c:	00813823          	sd	s0,16(sp)
   13fa0:	01255403          	lhu	s0,18(a0)
   13fa4:	00913423          	sd	s1,8(sp)
   13fa8:	00113c23          	sd	ra,24(sp)
   13fac:	fff44793          	not	a5,s0
   13fb0:	03179713          	slli	a4,a5,0x31
   13fb4:	00050493          	mv	s1,a0
   13fb8:	00071663          	bnez	a4,13fc4 <eneg+0x2c>
   13fbc:	fb9ff0ef          	jal	ra,13f74 <eisnan.part.0>
   13fc0:	00051863          	bnez	a0,13fd0 <eneg+0x38>
   13fc4:	ffff87b7          	lui	a5,0xffff8
   13fc8:	00f44433          	xor	s0,s0,a5
   13fcc:	00849923          	sh	s0,18(s1)
   13fd0:	01813083          	ld	ra,24(sp)
   13fd4:	01013403          	ld	s0,16(sp)
   13fd8:	00813483          	ld	s1,8(sp)
   13fdc:	02010113          	addi	sp,sp,32
   13fe0:	00008067          	ret

0000000000013fe4 <eisneg>:
   13fe4:	ff010113          	addi	sp,sp,-16
   13fe8:	00813023          	sd	s0,0(sp)
   13fec:	01255403          	lhu	s0,18(a0)
   13ff0:	00113423          	sd	ra,8(sp)
   13ff4:	fff44793          	not	a5,s0
   13ff8:	03179713          	slli	a4,a5,0x31
   13ffc:	00071863          	bnez	a4,1400c <eisneg+0x28>
   14000:	f75ff0ef          	jal	ra,13f74 <eisnan.part.0>
   14004:	00000793          	li	a5,0
   14008:	00051463          	bnez	a0,14010 <eisneg+0x2c>
   1400c:	00f45793          	srli	a5,s0,0xf
   14010:	00813083          	ld	ra,8(sp)
   14014:	00013403          	ld	s0,0(sp)
   14018:	00078513          	mv	a0,a5
   1401c:	01010113          	addi	sp,sp,16
   14020:	00008067          	ret

0000000000014024 <emovi>:
   14024:	01255783          	lhu	a5,18(a0)
   14028:	fe010113          	addi	sp,sp,-32
   1402c:	00813823          	sd	s0,16(sp)
   14030:	00f7d79b          	srliw	a5,a5,0xf
   14034:	00913423          	sd	s1,8(sp)
   14038:	00113c23          	sd	ra,24(sp)
   1403c:	01213023          	sd	s2,0(sp)
   14040:	40f007bb          	negw	a5,a5
   14044:	00f59023          	sh	a5,0(a1)
   14048:	01255783          	lhu	a5,18(a0)
   1404c:	000086b7          	lui	a3,0x8
   14050:	fff68693          	addi	a3,a3,-1 # 7fff <register_fini-0x80b1>
   14054:	00f6f7b3          	and	a5,a3,a5
   14058:	00f59123          	sh	a5,2(a1)
   1405c:	0007879b          	sext.w	a5,a5
   14060:	00050493          	mv	s1,a0
   14064:	01050413          	addi	s0,a0,16
   14068:	04d78063          	beq	a5,a3,140a8 <emovi+0x84>
   1406c:	00658793          	addi	a5,a1,6
   14070:	00059223          	sh	zero,4(a1)
   14074:	ffe50513          	addi	a0,a0,-2
   14078:	ffe40413          	addi	s0,s0,-2
   1407c:	00245703          	lhu	a4,2(s0)
   14080:	00278793          	addi	a5,a5,2 # ffffffffffff8002 <__BSS_END__+0xfffffffffffd4dfa>
   14084:	fee79f23          	sh	a4,-2(a5)
   14088:	fea418e3          	bne	s0,a0,14078 <emovi+0x54>
   1408c:	00059c23          	sh	zero,24(a1)
   14090:	01813083          	ld	ra,24(sp)
   14094:	01013403          	ld	s0,16(sp)
   14098:	00813483          	ld	s1,8(sp)
   1409c:	00013903          	ld	s2,0(sp)
   140a0:	02010113          	addi	sp,sp,32
   140a4:	00008067          	ret
   140a8:	01255703          	lhu	a4,18(a0)
   140ac:	00058913          	mv	s2,a1
   140b0:	00e7f733          	and	a4,a5,a4
   140b4:	02f71863          	bne	a4,a5,140e4 <emovi+0xc0>
   140b8:	ebdff0ef          	jal	ra,13f74 <eisnan.part.0>
   140bc:	02050463          	beqz	a0,140e4 <emovi+0xc0>
   140c0:	00690713          	addi	a4,s2,6
   140c4:	00091223          	sh	zero,4(s2)
   140c8:	ffc48793          	addi	a5,s1,-4
   140cc:	ffe40413          	addi	s0,s0,-2
   140d0:	00245683          	lhu	a3,2(s0)
   140d4:	00270713          	addi	a4,a4,2
   140d8:	fed71f23          	sh	a3,-2(a4)
   140dc:	fe8798e3          	bne	a5,s0,140cc <emovi+0xa8>
   140e0:	fb1ff06f          	j	14090 <emovi+0x6c>
   140e4:	00490793          	addi	a5,s2,4
   140e8:	01a90593          	addi	a1,s2,26
   140ec:	00278793          	addi	a5,a5,2
   140f0:	fe079f23          	sh	zero,-2(a5)
   140f4:	fef59ce3          	bne	a1,a5,140ec <emovi+0xc8>
   140f8:	01813083          	ld	ra,24(sp)
   140fc:	01013403          	ld	s0,16(sp)
   14100:	00813483          	ld	s1,8(sp)
   14104:	00013903          	ld	s2,0(sp)
   14108:	02010113          	addi	sp,sp,32
   1410c:	00008067          	ret

0000000000014110 <ecmp>:
   14110:	01255783          	lhu	a5,18(a0)
   14114:	fa010113          	addi	sp,sp,-96
   14118:	04813823          	sd	s0,80(sp)
   1411c:	fff7c793          	not	a5,a5
   14120:	04913423          	sd	s1,72(sp)
   14124:	04113c23          	sd	ra,88(sp)
   14128:	03179713          	slli	a4,a5,0x31
   1412c:	00050493          	mv	s1,a0
   14130:	00058413          	mv	s0,a1
   14134:	00071663          	bnez	a4,14140 <ecmp+0x30>
   14138:	e3dff0ef          	jal	ra,13f74 <eisnan.part.0>
   1413c:	08051263          	bnez	a0,141c0 <ecmp+0xb0>
   14140:	01245783          	lhu	a5,18(s0)
   14144:	fff7c793          	not	a5,a5
   14148:	03179713          	slli	a4,a5,0x31
   1414c:	06070463          	beqz	a4,141b4 <ecmp+0xa4>
   14150:	00010593          	mv	a1,sp
   14154:	00048513          	mv	a0,s1
   14158:	ecdff0ef          	jal	ra,14024 <emovi>
   1415c:	02010593          	addi	a1,sp,32
   14160:	00040513          	mv	a0,s0
   14164:	ec1ff0ef          	jal	ra,14024 <emovi>
   14168:	00015583          	lhu	a1,0(sp)
   1416c:	02015783          	lhu	a5,32(sp)
   14170:	04b78c63          	beq	a5,a1,141c8 <ecmp+0xb8>
   14174:	00210793          	addi	a5,sp,2
   14178:	02210713          	addi	a4,sp,34
   1417c:	01810613          	addi	a2,sp,24
   14180:	0007d683          	lhu	a3,0(a5)
   14184:	00278793          	addi	a5,a5,2
   14188:	08069663          	bnez	a3,14214 <ecmp+0x104>
   1418c:	00075683          	lhu	a3,0(a4)
   14190:	00270713          	addi	a4,a4,2
   14194:	08069063          	bnez	a3,14214 <ecmp+0x104>
   14198:	fec794e3          	bne	a5,a2,14180 <ecmp+0x70>
   1419c:	00000513          	li	a0,0
   141a0:	05813083          	ld	ra,88(sp)
   141a4:	05013403          	ld	s0,80(sp)
   141a8:	04813483          	ld	s1,72(sp)
   141ac:	06010113          	addi	sp,sp,96
   141b0:	00008067          	ret
   141b4:	00040513          	mv	a0,s0
   141b8:	dbdff0ef          	jal	ra,13f74 <eisnan.part.0>
   141bc:	f8050ae3          	beqz	a0,14150 <ecmp+0x40>
   141c0:	ffe00513          	li	a0,-2
   141c4:	fddff06f          	j	141a0 <ecmp+0x90>
   141c8:	00100513          	li	a0,1
   141cc:	04059c63          	bnez	a1,14224 <ecmp+0x114>
   141d0:	00210713          	addi	a4,sp,2
   141d4:	02210793          	addi	a5,sp,34
   141d8:	00278793          	addi	a5,a5,2
   141dc:	00270713          	addi	a4,a4,2
   141e0:	ffe75603          	lhu	a2,-2(a4)
   141e4:	ffe7d683          	lhu	a3,-2(a5)
   141e8:	03810593          	addi	a1,sp,56
   141ec:	00d61e63          	bne	a2,a3,14208 <ecmp+0xf8>
   141f0:	fab786e3          	beq	a5,a1,1419c <ecmp+0x8c>
   141f4:	00278793          	addi	a5,a5,2
   141f8:	00270713          	addi	a4,a4,2
   141fc:	ffe75603          	lhu	a2,-2(a4)
   14200:	ffe7d683          	lhu	a3,-2(a5)
   14204:	fed606e3          	beq	a2,a3,141f0 <ecmp+0xe0>
   14208:	f8c6ece3          	bltu	a3,a2,141a0 <ecmp+0x90>
   1420c:	40a0053b          	negw	a0,a0
   14210:	f91ff06f          	j	141a0 <ecmp+0x90>
   14214:	00100513          	li	a0,1
   14218:	f80584e3          	beqz	a1,141a0 <ecmp+0x90>
   1421c:	fff00513          	li	a0,-1
   14220:	f81ff06f          	j	141a0 <ecmp+0x90>
   14224:	fff00513          	li	a0,-1
   14228:	fa9ff06f          	j	141d0 <ecmp+0xc0>

000000000001422c <eisinf.part.1>:
   1422c:	ff010113          	addi	sp,sp,-16
   14230:	00113423          	sd	ra,8(sp)
   14234:	d41ff0ef          	jal	ra,13f74 <eisnan.part.0>
   14238:	00813083          	ld	ra,8(sp)
   1423c:	00153513          	seqz	a0,a0
   14240:	01010113          	addi	sp,sp,16
   14244:	00008067          	ret

0000000000014248 <eshift.part.3>:
   14248:	fe010113          	addi	sp,sp,-32
   1424c:	00813823          	sd	s0,16(sp)
   14250:	01213023          	sd	s2,0(sp)
   14254:	00113c23          	sd	ra,24(sp)
   14258:	00913423          	sd	s1,8(sp)
   1425c:	00058913          	mv	s2,a1
   14260:	00050413          	mv	s0,a0
   14264:	0a05c263          	bltz	a1,14308 <eshift.part.3+0xc0>
   14268:	00f00793          	li	a5,15
   1426c:	00058613          	mv	a2,a1
   14270:	00450513          	addi	a0,a0,4
   14274:	01840693          	addi	a3,s0,24
   14278:	00f00593          	li	a1,15
   1427c:	0327d463          	bge	a5,s2,142a4 <eshift.part.3+0x5c>
   14280:	00050793          	mv	a5,a0
   14284:	00278793          	addi	a5,a5,2
   14288:	0007d703          	lhu	a4,0(a5)
   1428c:	fee79f23          	sh	a4,-2(a5)
   14290:	fed79ae3          	bne	a5,a3,14284 <eshift.part.3+0x3c>
   14294:	00041c23          	sh	zero,24(s0)
   14298:	ff06061b          	addiw	a2,a2,-16
   1429c:	fec5c2e3          	blt	a1,a2,14280 <eshift.part.3+0x38>
   142a0:	00f97913          	andi	s2,s2,15
   142a4:	00700793          	li	a5,7
   142a8:	0327d863          	bge	a5,s2,142d8 <eshift.part.3+0x90>
   142ac:	01840793          	addi	a5,s0,24
   142b0:	00240593          	addi	a1,s0,2
   142b4:	00000713          	li	a4,0
   142b8:	0007d683          	lhu	a3,0(a5)
   142bc:	ffe78793          	addi	a5,a5,-2
   142c0:	00869613          	slli	a2,a3,0x8
   142c4:	00c76733          	or	a4,a4,a2
   142c8:	00e79123          	sh	a4,2(a5)
   142cc:	0086d713          	srli	a4,a3,0x8
   142d0:	feb794e3          	bne	a5,a1,142b8 <eshift.part.3+0x70>
   142d4:	ff89091b          	addiw	s2,s2,-8
   142d8:	00090a63          	beqz	s2,142ec <eshift.part.3+0xa4>
   142dc:	fff9091b          	addiw	s2,s2,-1
   142e0:	00040513          	mv	a0,s0
   142e4:	b3dff0ef          	jal	ra,13e20 <eshup1>
   142e8:	fe091ae3          	bnez	s2,142dc <eshift.part.3+0x94>
   142ec:	01813083          	ld	ra,24(sp)
   142f0:	01013403          	ld	s0,16(sp)
   142f4:	00813483          	ld	s1,8(sp)
   142f8:	00013903          	ld	s2,0(sp)
   142fc:	00000513          	li	a0,0
   14300:	02010113          	addi	sp,sp,32
   14304:	00008067          	ret
   14308:	ff100793          	li	a5,-15
   1430c:	40b004bb          	negw	s1,a1
   14310:	0cf5d463          	bge	a1,a5,143d8 <eshift.part.3+0x190>
   14314:	01850593          	addi	a1,a0,24
   14318:	00000913          	li	s2,0
   1431c:	00450693          	addi	a3,a0,4
   14320:	00f00613          	li	a2,15
   14324:	01845703          	lhu	a4,24(s0)
   14328:	00058793          	mv	a5,a1
   1432c:	00e96933          	or	s2,s2,a4
   14330:	ffe78793          	addi	a5,a5,-2
   14334:	0007d703          	lhu	a4,0(a5)
   14338:	00e79123          	sh	a4,2(a5)
   1433c:	fed79ae3          	bne	a5,a3,14330 <eshift.part.3+0xe8>
   14340:	00041223          	sh	zero,4(s0)
   14344:	ff04849b          	addiw	s1,s1,-16
   14348:	fc964ee3          	blt	a2,s1,14324 <eshift.part.3+0xdc>
   1434c:	00700793          	li	a5,7
   14350:	0497d663          	bge	a5,s1,1439c <eshift.part.3+0x154>
   14354:	0109191b          	slliw	s2,s2,0x10
   14358:	4109591b          	sraiw	s2,s2,0x10
   1435c:	01844783          	lbu	a5,24(s0)
   14360:	01a40593          	addi	a1,s0,26
   14364:	00000713          	li	a4,0
   14368:	00f96933          	or	s2,s2,a5
   1436c:	03091913          	slli	s2,s2,0x30
   14370:	03095913          	srli	s2,s2,0x30
   14374:	0006d783          	lhu	a5,0(a3)
   14378:	00268693          	addi	a3,a3,2
   1437c:	0087d61b          	srliw	a2,a5,0x8
   14380:	00c76733          	or	a4,a4,a2
   14384:	0087979b          	slliw	a5,a5,0x8
   14388:	fee69f23          	sh	a4,-2(a3)
   1438c:	03079713          	slli	a4,a5,0x30
   14390:	03075713          	srli	a4,a4,0x30
   14394:	feb690e3          	bne	a3,a1,14374 <eshift.part.3+0x12c>
   14398:	ff84849b          	addiw	s1,s1,-8
   1439c:	02048063          	beqz	s1,143bc <eshift.part.3+0x174>
   143a0:	01845783          	lhu	a5,24(s0)
   143a4:	fff4849b          	addiw	s1,s1,-1
   143a8:	00040513          	mv	a0,s0
   143ac:	0017f793          	andi	a5,a5,1
   143b0:	0127e933          	or	s2,a5,s2
   143b4:	a05ff0ef          	jal	ra,13db8 <eshdn1>
   143b8:	fe0494e3          	bnez	s1,143a0 <eshift.part.3+0x158>
   143bc:	01813083          	ld	ra,24(sp)
   143c0:	01013403          	ld	s0,16(sp)
   143c4:	01203533          	snez	a0,s2
   143c8:	00813483          	ld	s1,8(sp)
   143cc:	00013903          	ld	s2,0(sp)
   143d0:	02010113          	addi	sp,sp,32
   143d4:	00008067          	ret
   143d8:	ff900793          	li	a5,-7
   143dc:	00f5c663          	blt	a1,a5,143e8 <eshift.part.3+0x1a0>
   143e0:	00000913          	li	s2,0
   143e4:	fbdff06f          	j	143a0 <eshift.part.3+0x158>
   143e8:	00000913          	li	s2,0
   143ec:	00440693          	addi	a3,s0,4
   143f0:	f6dff06f          	j	1435c <eshift.part.3+0x114>

00000000000143f4 <enormlz>:
   143f4:	00455783          	lhu	a5,4(a0)
   143f8:	fe010113          	addi	sp,sp,-32
   143fc:	00913423          	sd	s1,8(sp)
   14400:	00113c23          	sd	ra,24(sp)
   14404:	00813823          	sd	s0,16(sp)
   14408:	01213023          	sd	s2,0(sp)
   1440c:	00050493          	mv	s1,a0
   14410:	0e079063          	bnez	a5,144f0 <enormlz+0xfc>
   14414:	00655703          	lhu	a4,6(a0)
   14418:	00000413          	li	s0,0
   1441c:	0107179b          	slliw	a5,a4,0x10
   14420:	4107d79b          	sraiw	a5,a5,0x10
   14424:	02079693          	slli	a3,a5,0x20
   14428:	0a06c663          	bltz	a3,144d4 <enormlz+0xe0>
   1442c:	01a50693          	addi	a3,a0,26
   14430:	0a000613          	li	a2,160
   14434:	02071863          	bnez	a4,14464 <enormlz+0x70>
   14438:	00648793          	addi	a5,s1,6
   1443c:	0080006f          	j	14444 <enormlz+0x50>
   14440:	0007d703          	lhu	a4,0(a5)
   14444:	00278793          	addi	a5,a5,2
   14448:	fee79e23          	sh	a4,-4(a5)
   1444c:	fef69ae3          	bne	a3,a5,14440 <enormlz+0x4c>
   14450:	00049c23          	sh	zero,24(s1)
   14454:	0104041b          	addiw	s0,s0,16
   14458:	06c40e63          	beq	s0,a2,144d4 <enormlz+0xe0>
   1445c:	0064d703          	lhu	a4,6(s1)
   14460:	fc070ce3          	beqz	a4,14438 <enormlz+0x44>
   14464:	f0077793          	andi	a5,a4,-256
   14468:	04079063          	bnez	a5,144a8 <enormlz+0xb4>
   1446c:	01848513          	addi	a0,s1,24
   14470:	00248593          	addi	a1,s1,2
   14474:	00000713          	li	a4,0
   14478:	00050793          	mv	a5,a0
   1447c:	0007d683          	lhu	a3,0(a5)
   14480:	ffe78793          	addi	a5,a5,-2
   14484:	00869613          	slli	a2,a3,0x8
   14488:	00c76733          	or	a4,a4,a2
   1448c:	00e79123          	sh	a4,2(a5)
   14490:	0086d713          	srli	a4,a3,0x8
   14494:	fef594e3          	bne	a1,a5,1447c <enormlz+0x88>
   14498:	0064d703          	lhu	a4,6(s1)
   1449c:	0084041b          	addiw	s0,s0,8
   144a0:	f0077793          	andi	a5,a4,-256
   144a4:	fc0788e3          	beqz	a5,14474 <enormlz+0x80>
   144a8:	0a000913          	li	s2,160
   144ac:	0140006f          	j	144c0 <enormlz+0xcc>
   144b0:	0014041b          	addiw	s0,s0,1
   144b4:	96dff0ef          	jal	ra,13e20 <eshup1>
   144b8:	00894e63          	blt	s2,s0,144d4 <enormlz+0xe0>
   144bc:	0064d703          	lhu	a4,6(s1)
   144c0:	0107171b          	slliw	a4,a4,0x10
   144c4:	4107571b          	sraiw	a4,a4,0x10
   144c8:	02071793          	slli	a5,a4,0x20
   144cc:	00048513          	mv	a0,s1
   144d0:	fe07d0e3          	bgez	a5,144b0 <enormlz+0xbc>
   144d4:	00040513          	mv	a0,s0
   144d8:	01813083          	ld	ra,24(sp)
   144dc:	01013403          	ld	s0,16(sp)
   144e0:	00813483          	ld	s1,8(sp)
   144e4:	00013903          	ld	s2,0(sp)
   144e8:	02010113          	addi	sp,sp,32
   144ec:	00008067          	ret
   144f0:	f007f713          	andi	a4,a5,-256
   144f4:	00000413          	li	s0,0
   144f8:	04071063          	bnez	a4,14538 <enormlz+0x144>
   144fc:	f6f00913          	li	s2,-145
   14500:	0140006f          	j	14514 <enormlz+0x120>
   14504:	fff4041b          	addiw	s0,s0,-1
   14508:	8b1ff0ef          	jal	ra,13db8 <eshdn1>
   1450c:	fd2404e3          	beq	s0,s2,144d4 <enormlz+0xe0>
   14510:	0044d783          	lhu	a5,4(s1)
   14514:	00048513          	mv	a0,s1
   14518:	fe0796e3          	bnez	a5,14504 <enormlz+0x110>
   1451c:	00040513          	mv	a0,s0
   14520:	01813083          	ld	ra,24(sp)
   14524:	01013403          	ld	s0,16(sp)
   14528:	00813483          	ld	s1,8(sp)
   1452c:	00013903          	ld	s2,0(sp)
   14530:	02010113          	addi	sp,sp,32
   14534:	00008067          	ret
   14538:	00450693          	addi	a3,a0,4
   1453c:	01a50593          	addi	a1,a0,26
   14540:	00000713          	li	a4,0
   14544:	0080006f          	j	1454c <enormlz+0x158>
   14548:	0006d783          	lhu	a5,0(a3)
   1454c:	0087d61b          	srliw	a2,a5,0x8
   14550:	00c76733          	or	a4,a4,a2
   14554:	0087979b          	slliw	a5,a5,0x8
   14558:	00e69023          	sh	a4,0(a3)
   1455c:	03079713          	slli	a4,a5,0x30
   14560:	00268693          	addi	a3,a3,2
   14564:	03075713          	srli	a4,a4,0x30
   14568:	feb690e3          	bne	a3,a1,14548 <enormlz+0x154>
   1456c:	0044d783          	lhu	a5,4(s1)
   14570:	ff800413          	li	s0,-8
   14574:	f89ff06f          	j	144fc <enormlz+0x108>

0000000000014578 <emdnorm>:
   14578:	fc010113          	addi	sp,sp,-64
   1457c:	02813823          	sd	s0,48(sp)
   14580:	02913423          	sd	s1,40(sp)
   14584:	03213023          	sd	s2,32(sp)
   14588:	01313c23          	sd	s3,24(sp)
   1458c:	01413823          	sd	s4,16(sp)
   14590:	01513423          	sd	s5,8(sp)
   14594:	00068913          	mv	s2,a3
   14598:	00078493          	mv	s1,a5
   1459c:	02113c23          	sd	ra,56(sp)
   145a0:	00050413          	mv	s0,a0
   145a4:	00058993          	mv	s3,a1
   145a8:	00060a13          	mv	s4,a2
   145ac:	00070a93          	mv	s5,a4
   145b0:	e45ff0ef          	jal	ra,143f4 <enormlz>
   145b4:	09000793          	li	a5,144
   145b8:	40a90933          	sub	s2,s2,a0
   145bc:	08a7d063          	bge	a5,a0,1463c <emdnorm+0xc4>
   145c0:	000087b7          	lui	a5,0x8
   145c4:	ffe78793          	addi	a5,a5,-2 # 7ffe <register_fini-0x80b2>
   145c8:	2327dc63          	bge	a5,s2,14800 <emdnorm+0x288>
   145cc:	200a8663          	beqz	s5,147d8 <emdnorm+0x260>
   145d0:	0044a503          	lw	a0,4(s1)
   145d4:	0004a783          	lw	a5,0(s1)
   145d8:	0ea78e63          	beq	a5,a0,146d4 <emdnorm+0x15c>
   145dc:	01a48713          	addi	a4,s1,26
   145e0:	03448793          	addi	a5,s1,52
   145e4:	00270713          	addi	a4,a4,2
   145e8:	fe071f23          	sh	zero,-2(a4)
   145ec:	fef71ce3          	bne	a4,a5,145e4 <emdnorm+0x6c>
   145f0:	03800793          	li	a5,56
   145f4:	38f50263          	beq	a0,a5,14978 <emdnorm+0x400>
   145f8:	06a7d463          	bge	a5,a0,14660 <emdnorm+0xe8>
   145fc:	04000793          	li	a5,64
   14600:	30f50c63          	beq	a0,a5,14918 <emdnorm+0x3a0>
   14604:	07100793          	li	a5,113
   14608:	32f51e63          	bne	a0,a5,14944 <emdnorm+0x3cc>
   1460c:	00a00793          	li	a5,10
   14610:	40008737          	lui	a4,0x40008
   14614:	fff70713          	addi	a4,a4,-1 # 40007fff <__BSS_END__+0x3ffe4df7>
   14618:	02079793          	slli	a5,a5,0x20
   1461c:	00a78793          	addi	a5,a5,10
   14620:	00e4aa23          	sw	a4,20(s1)
   14624:	ffff8737          	lui	a4,0xffff8
   14628:	00e49c23          	sh	a4,24(s1)
   1462c:	00f4b423          	sd	a5,8(s1)
   14630:	00008737          	lui	a4,0x8
   14634:	00a00793          	li	a5,10
   14638:	0640006f          	j	1469c <emdnorm+0x124>
   1463c:	20095263          	bgez	s2,14840 <emdnorm+0x2c8>
   14640:	f7000793          	li	a5,-144
   14644:	1cf95a63          	bge	s2,a5,14818 <emdnorm+0x2a0>
   14648:	00240793          	addi	a5,s0,2
   1464c:	01a40413          	addi	s0,s0,26
   14650:	00278793          	addi	a5,a5,2
   14654:	fe079f23          	sh	zero,-2(a5)
   14658:	fe879ce3          	bne	a5,s0,14650 <emdnorm+0xd8>
   1465c:	1580006f          	j	147b4 <emdnorm+0x23c>
   14660:	01800793          	li	a5,24
   14664:	28f50463          	beq	a0,a5,148ec <emdnorm+0x374>
   14668:	03500793          	li	a5,53
   1466c:	2cf51c63          	bne	a0,a5,14944 <emdnorm+0x3cc>
   14670:	040006b7          	lui	a3,0x4000
   14674:	00001737          	lui	a4,0x1
   14678:	7ff68693          	addi	a3,a3,2047 # 40007ff <__BSS_END__+0x3fdd5f7>
   1467c:	00600793          	li	a5,6
   14680:	80070713          	addi	a4,a4,-2048 # 800 <register_fini-0xf8b0>
   14684:	00d4aa23          	sw	a3,20(s1)
   14688:	02079793          	slli	a5,a5,0x20
   1468c:	00678793          	addi	a5,a5,6
   14690:	00f4b423          	sd	a5,8(s1)
   14694:	00e49c23          	sh	a4,24(s1)
   14698:	00600793          	li	a5,6
   1469c:	00878793          	addi	a5,a5,8
   146a0:	00179793          	slli	a5,a5,0x1
   146a4:	00f487b3          	add	a5,s1,a5
   146a8:	00e79523          	sh	a4,10(a5)
   146ac:	00a4a023          	sw	a0,0(s1)
   146b0:	03204263          	bgtz	s2,146d4 <emdnorm+0x15c>
   146b4:	09000793          	li	a5,144
   146b8:	20f50663          	beq	a0,a5,148c4 <emdnorm+0x34c>
   146bc:	01845783          	lhu	a5,24(s0)
   146c0:	00040513          	mv	a0,s0
   146c4:	0017f793          	andi	a5,a5,1
   146c8:	00f9e9b3          	or	s3,s3,a5
   146cc:	eecff0ef          	jal	ra,13db8 <eshdn1>
   146d0:	0044a503          	lw	a0,4(s1)
   146d4:	0084a683          	lw	a3,8(s1)
   146d8:	0144d603          	lhu	a2,20(s1)
   146dc:	08f00793          	li	a5,143
   146e0:	00169713          	slli	a4,a3,0x1
   146e4:	00e40833          	add	a6,s0,a4
   146e8:	00085883          	lhu	a7,0(a6) # ffffffffffff8000 <__BSS_END__+0xfffffffffffd4df8>
   146ec:	00c8f5b3          	and	a1,a7,a2
   146f0:	04a7c863          	blt	a5,a0,14740 <emdnorm+0x1c8>
   146f4:	00b00793          	li	a5,11
   146f8:	04d7c463          	blt	a5,a3,14740 <emdnorm+0x1c8>
   146fc:	40d787bb          	subw	a5,a5,a3
   14700:	02079793          	slli	a5,a5,0x20
   14704:	0207d793          	srli	a5,a5,0x20
   14708:	00d787b3          	add	a5,a5,a3
   1470c:	00179693          	slli	a3,a5,0x1
   14710:	00270713          	addi	a4,a4,2
   14714:	00440793          	addi	a5,s0,4
   14718:	00e40733          	add	a4,s0,a4
   1471c:	00f687b3          	add	a5,a3,a5
   14720:	00075683          	lhu	a3,0(a4)
   14724:	00068463          	beqz	a3,1472c <emdnorm+0x1b4>
   14728:	0015e593          	ori	a1,a1,1
   1472c:	00071023          	sh	zero,0(a4)
   14730:	00270713          	addi	a4,a4,2
   14734:	fee796e3          	bne	a5,a4,14720 <emdnorm+0x1a8>
   14738:	00085883          	lhu	a7,0(a6)
   1473c:	0144d603          	lhu	a2,20(s1)
   14740:	fff64613          	not	a2,a2
   14744:	01167633          	and	a2,a2,a7
   14748:	00c81023          	sh	a2,0(a6)
   1474c:	0164d783          	lhu	a5,22(s1)
   14750:	00b7f733          	and	a4,a5,a1
   14754:	04070063          	beqz	a4,14794 <emdnorm+0x21c>
   14758:	12b78263          	beq	a5,a1,1487c <emdnorm+0x304>
   1475c:	03248613          	addi	a2,s1,50
   14760:	01840713          	addi	a4,s0,24
   14764:	01c48493          	addi	s1,s1,28
   14768:	00000693          	li	a3,0
   1476c:	00065783          	lhu	a5,0(a2)
   14770:	00075583          	lhu	a1,0(a4)
   14774:	ffe70713          	addi	a4,a4,-2
   14778:	ffe60613          	addi	a2,a2,-2
   1477c:	00b787b3          	add	a5,a5,a1
   14780:	00d787b3          	add	a5,a5,a3
   14784:	00f71123          	sh	a5,2(a4)
   14788:	0107d793          	srli	a5,a5,0x10
   1478c:	0017f693          	andi	a3,a5,1
   14790:	fc961ee3          	bne	a2,s1,1476c <emdnorm+0x1f4>
   14794:	11205663          	blez	s2,148a0 <emdnorm+0x328>
   14798:	00445783          	lhu	a5,4(s0)
   1479c:	0a079c63          	bnez	a5,14854 <emdnorm+0x2dc>
   147a0:	000087b7          	lui	a5,0x8
   147a4:	00041c23          	sh	zero,24(s0)
   147a8:	ffe78793          	addi	a5,a5,-2 # 7ffe <register_fini-0x80b2>
   147ac:	0327c863          	blt	a5,s2,147dc <emdnorm+0x264>
   147b0:	01241123          	sh	s2,2(s0)
   147b4:	03813083          	ld	ra,56(sp)
   147b8:	03013403          	ld	s0,48(sp)
   147bc:	02813483          	ld	s1,40(sp)
   147c0:	02013903          	ld	s2,32(sp)
   147c4:	01813983          	ld	s3,24(sp)
   147c8:	01013a03          	ld	s4,16(sp)
   147cc:	00813a83          	ld	s5,8(sp)
   147d0:	04010113          	addi	sp,sp,64
   147d4:	00008067          	ret
   147d8:	00041c23          	sh	zero,24(s0)
   147dc:	ffff87b7          	lui	a5,0xffff8
   147e0:	fff7c793          	not	a5,a5
   147e4:	00f41123          	sh	a5,2(s0)
   147e8:	00440793          	addi	a5,s0,4
   147ec:	01840413          	addi	s0,s0,24
   147f0:	00079023          	sh	zero,0(a5) # ffffffffffff8000 <__BSS_END__+0xfffffffffffd4df8>
   147f4:	00278793          	addi	a5,a5,2
   147f8:	fef41ce3          	bne	s0,a5,147f0 <emdnorm+0x278>
   147fc:	fb9ff06f          	j	147b4 <emdnorm+0x23c>
   14800:	00240793          	addi	a5,s0,2
   14804:	01a40413          	addi	s0,s0,26
   14808:	00278793          	addi	a5,a5,2
   1480c:	fe079f23          	sh	zero,-2(a5)
   14810:	fe879ce3          	bne	a5,s0,14808 <emdnorm+0x290>
   14814:	fa1ff06f          	j	147b4 <emdnorm+0x23c>
   14818:	0009059b          	sext.w	a1,s2
   1481c:	00040513          	mv	a0,s0
   14820:	a29ff0ef          	jal	ra,14248 <eshift.part.3>
   14824:	00050463          	beqz	a0,1482c <emdnorm+0x2b4>
   14828:	00100993          	li	s3,1
   1482c:	0a0a8a63          	beqz	s5,148e0 <emdnorm+0x368>
   14830:	0044a503          	lw	a0,4(s1)
   14834:	0004a783          	lw	a5,0(s1)
   14838:	daa792e3          	bne	a5,a0,145dc <emdnorm+0x64>
   1483c:	e79ff06f          	j	146b4 <emdnorm+0x13c>
   14840:	f60a80e3          	beqz	s5,147a0 <emdnorm+0x228>
   14844:	0044a503          	lw	a0,4(s1)
   14848:	0004a783          	lw	a5,0(s1)
   1484c:	d8a798e3          	bne	a5,a0,145dc <emdnorm+0x64>
   14850:	e61ff06f          	j	146b0 <emdnorm+0x138>
   14854:	00040513          	mv	a0,s0
   14858:	d60ff0ef          	jal	ra,13db8 <eshdn1>
   1485c:	000087b7          	lui	a5,0x8
   14860:	00190913          	addi	s2,s2,1
   14864:	00041c23          	sh	zero,24(s0)
   14868:	ffe78793          	addi	a5,a5,-2 # 7ffe <register_fini-0x80b2>
   1486c:	f727c8e3          	blt	a5,s2,147dc <emdnorm+0x264>
   14870:	f40950e3          	bgez	s2,147b0 <emdnorm+0x238>
   14874:	00041123          	sh	zero,2(s0)
   14878:	f3dff06f          	j	147b4 <emdnorm+0x23c>
   1487c:	0e099a63          	bnez	s3,14970 <emdnorm+0x3f8>
   14880:	00c4a783          	lw	a5,12(s1)
   14884:	0184d703          	lhu	a4,24(s1)
   14888:	00179793          	slli	a5,a5,0x1
   1488c:	00f407b3          	add	a5,s0,a5
   14890:	0007d783          	lhu	a5,0(a5)
   14894:	00e7f7b3          	and	a5,a5,a4
   14898:	ec0792e3          	bnez	a5,1475c <emdnorm+0x1e4>
   1489c:	ef204ee3          	bgtz	s2,14798 <emdnorm+0x220>
   148a0:	09000793          	li	a5,144
   148a4:	00f50663          	beq	a0,a5,148b0 <emdnorm+0x338>
   148a8:	00040513          	mv	a0,s0
   148ac:	d74ff0ef          	jal	ra,13e20 <eshup1>
   148b0:	00445783          	lhu	a5,4(s0)
   148b4:	fa0790e3          	bnez	a5,14854 <emdnorm+0x2dc>
   148b8:	00041c23          	sh	zero,24(s0)
   148bc:	fa094ce3          	bltz	s2,14874 <emdnorm+0x2fc>
   148c0:	ef1ff06f          	j	147b0 <emdnorm+0x238>
   148c4:	0084a803          	lw	a6,8(s1)
   148c8:	0144d603          	lhu	a2,20(s1)
   148cc:	00181813          	slli	a6,a6,0x1
   148d0:	01040833          	add	a6,s0,a6
   148d4:	00085883          	lhu	a7,0(a6)
   148d8:	011675b3          	and	a1,a2,a7
   148dc:	e65ff06f          	j	14740 <emdnorm+0x1c8>
   148e0:	00041c23          	sh	zero,24(s0)
   148e4:	00041123          	sh	zero,2(s0)
   148e8:	ecdff06f          	j	147b4 <emdnorm+0x23c>
   148ec:	00400793          	li	a5,4
   148f0:	00800737          	lui	a4,0x800
   148f4:	0ff70713          	addi	a4,a4,255 # 8000ff <__BSS_END__+0x7dcef7>
   148f8:	02079793          	slli	a5,a5,0x20
   148fc:	00478793          	addi	a5,a5,4
   14900:	00e4aa23          	sw	a4,20(s1)
   14904:	10000713          	li	a4,256
   14908:	00f4b423          	sd	a5,8(s1)
   1490c:	00e49c23          	sh	a4,24(s1)
   14910:	00400793          	li	a5,4
   14914:	d89ff06f          	j	1469c <emdnorm+0x124>
   14918:	00300793          	li	a5,3
   1491c:	80010737          	lui	a4,0x80010
   14920:	fff70713          	addi	a4,a4,-1 # ffffffff8000ffff <__BSS_END__+0xffffffff7ffecdf7>
   14924:	02179793          	slli	a5,a5,0x21
   14928:	00778793          	addi	a5,a5,7
   1492c:	00e4aa23          	sw	a4,20(s1)
   14930:	00100713          	li	a4,1
   14934:	00f4b423          	sd	a5,8(s1)
   14938:	00e49c23          	sh	a4,24(s1)
   1493c:	00600793          	li	a5,6
   14940:	d5dff06f          	j	1469c <emdnorm+0x124>
   14944:	00b00793          	li	a5,11
   14948:	80010737          	lui	a4,0x80010
   1494c:	fff70713          	addi	a4,a4,-1 # ffffffff8000ffff <__BSS_END__+0xffffffff7ffecdf7>
   14950:	02079793          	slli	a5,a5,0x20
   14954:	00c78793          	addi	a5,a5,12
   14958:	00e4aa23          	sw	a4,20(s1)
   1495c:	00100713          	li	a4,1
   14960:	00f4b423          	sd	a5,8(s1)
   14964:	00e49c23          	sh	a4,24(s1)
   14968:	00b00793          	li	a5,11
   1496c:	d31ff06f          	j	1469c <emdnorm+0x124>
   14970:	de0a06e3          	beqz	s4,1475c <emdnorm+0x1e4>
   14974:	e21ff06f          	j	14794 <emdnorm+0x21c>
   14978:	00800737          	lui	a4,0x800
   1497c:	0ff70713          	addi	a4,a4,255 # 8000ff <__BSS_END__+0x7dcef7>
   14980:	00e4aa23          	sw	a4,20(s1)
   14984:	00600793          	li	a5,6
   14988:	10000713          	li	a4,256
   1498c:	cfdff06f          	j	14688 <emdnorm+0x110>

0000000000014990 <eiremain>:
   14990:	fa010113          	addi	sp,sp,-96
   14994:	03313c23          	sd	s3,56(sp)
   14998:	00255983          	lhu	s3,2(a0)
   1499c:	04913423          	sd	s1,72(sp)
   149a0:	00058493          	mv	s1,a1
   149a4:	04113c23          	sd	ra,88(sp)
   149a8:	04813823          	sd	s0,80(sp)
   149ac:	05213023          	sd	s2,64(sp)
   149b0:	03413823          	sd	s4,48(sp)
   149b4:	00060913          	mv	s2,a2
   149b8:	03513423          	sd	s5,40(sp)
   149bc:	03613023          	sd	s6,32(sp)
   149c0:	01713c23          	sd	s7,24(sp)
   149c4:	01813823          	sd	s8,16(sp)
   149c8:	01913423          	sd	s9,8(sp)
   149cc:	01a13023          	sd	s10,0(sp)
   149d0:	00050a13          	mv	s4,a0
   149d4:	a21ff0ef          	jal	ra,143f4 <enormlz>
   149d8:	0024d403          	lhu	s0,2(s1)
   149dc:	40a989b3          	sub	s3,s3,a0
   149e0:	00048513          	mv	a0,s1
   149e4:	a11ff0ef          	jal	ra,143f4 <enormlz>
   149e8:	03490a93          	addi	s5,s2,52
   149ec:	40a40433          	sub	s0,s0,a0
   149f0:	04e90713          	addi	a4,s2,78
   149f4:	000a8793          	mv	a5,s5
   149f8:	00278793          	addi	a5,a5,2
   149fc:	fe079f23          	sh	zero,-2(a5)
   14a00:	fee79ce3          	bne	a5,a4,149f8 <eiremain+0x68>
   14a04:	09344a63          	blt	s0,s3,14a98 <eiremain+0x108>
   14a08:	004a0b93          	addi	s7,s4,4
   14a0c:	00448b13          	addi	s6,s1,4
   14a10:	fff98993          	addi	s3,s3,-1
   14a14:	01aa0c93          	addi	s9,s4,26
   14a18:	00248c13          	addi	s8,s1,2
   14a1c:	000b0713          	mv	a4,s6
   14a20:	000b8793          	mv	a5,s7
   14a24:	00278793          	addi	a5,a5,2
   14a28:	00270713          	addi	a4,a4,2
   14a2c:	ffe7d603          	lhu	a2,-2(a5)
   14a30:	ffe75683          	lhu	a3,-2(a4)
   14a34:	0ad61a63          	bne	a2,a3,14ae8 <eiremain+0x158>
   14a38:	fefc96e3          	bne	s9,a5,14a24 <eiremain+0x94>
   14a3c:	018a0693          	addi	a3,s4,24
   14a40:	01848713          	addi	a4,s1,24
   14a44:	00000613          	li	a2,0
   14a48:	00075783          	lhu	a5,0(a4)
   14a4c:	0006d583          	lhu	a1,0(a3)
   14a50:	ffe70713          	addi	a4,a4,-2
   14a54:	40c787b3          	sub	a5,a5,a2
   14a58:	40b787b3          	sub	a5,a5,a1
   14a5c:	00f71123          	sh	a5,2(a4)
   14a60:	0107d793          	srli	a5,a5,0x10
   14a64:	ffe68693          	addi	a3,a3,-2
   14a68:	0017f613          	andi	a2,a5,1
   14a6c:	fcec1ee3          	bne	s8,a4,14a48 <eiremain+0xb8>
   14a70:	00100d13          	li	s10,1
   14a74:	000a8513          	mv	a0,s5
   14a78:	ba8ff0ef          	jal	ra,13e20 <eshup1>
   14a7c:	04c95783          	lhu	a5,76(s2)
   14a80:	fff40413          	addi	s0,s0,-1
   14a84:	00048513          	mv	a0,s1
   14a88:	00fd6d33          	or	s10,s10,a5
   14a8c:	05a91623          	sh	s10,76(s2)
   14a90:	b90ff0ef          	jal	ra,13e20 <eshup1>
   14a94:	f93414e3          	bne	s0,s3,14a1c <eiremain+0x8c>
   14a98:	00040693          	mv	a3,s0
   14a9c:	05013403          	ld	s0,80(sp)
   14aa0:	05813083          	ld	ra,88(sp)
   14aa4:	03813983          	ld	s3,56(sp)
   14aa8:	03013a03          	ld	s4,48(sp)
   14aac:	02813a83          	ld	s5,40(sp)
   14ab0:	02013b03          	ld	s6,32(sp)
   14ab4:	01813b83          	ld	s7,24(sp)
   14ab8:	01013c03          	ld	s8,16(sp)
   14abc:	00813c83          	ld	s9,8(sp)
   14ac0:	00013d03          	ld	s10,0(sp)
   14ac4:	00090793          	mv	a5,s2
   14ac8:	00048513          	mv	a0,s1
   14acc:	04013903          	ld	s2,64(sp)
   14ad0:	04813483          	ld	s1,72(sp)
   14ad4:	00000713          	li	a4,0
   14ad8:	00000613          	li	a2,0
   14adc:	00000593          	li	a1,0
   14ae0:	06010113          	addi	sp,sp,96
   14ae4:	a95ff06f          	j	14578 <emdnorm>
   14ae8:	00000d13          	li	s10,0
   14aec:	f8c6e4e3          	bltu	a3,a2,14a74 <eiremain+0xe4>
   14af0:	f4dff06f          	j	14a3c <eiremain+0xac>

0000000000014af4 <emovo.isra.6>:
   14af4:	00055703          	lhu	a4,0(a0)
   14af8:	00255783          	lhu	a5,2(a0)
   14afc:	00070663          	beqz	a4,14b08 <emovo.isra.6+0x14>
   14b00:	00008737          	lui	a4,0x8
   14b04:	00e7e7b3          	or	a5,a5,a4
   14b08:	00f59923          	sh	a5,18(a1)
   14b0c:	00255703          	lhu	a4,2(a0)
   14b10:	000087b7          	lui	a5,0x8
   14b14:	fff78793          	addi	a5,a5,-1 # 7fff <register_fini-0x80b1>
   14b18:	02f70463          	beq	a4,a5,14b40 <emovo.isra.6+0x4c>
   14b1c:	00650793          	addi	a5,a0,6
   14b20:	01058593          	addi	a1,a1,16
   14b24:	01850513          	addi	a0,a0,24
   14b28:	00278793          	addi	a5,a5,2
   14b2c:	ffe7d703          	lhu	a4,-2(a5)
   14b30:	ffe58593          	addi	a1,a1,-2
   14b34:	00e59123          	sh	a4,2(a1)
   14b38:	fea798e3          	bne	a5,a0,14b28 <emovo.isra.6+0x34>
   14b3c:	00008067          	ret
   14b40:	00650793          	addi	a5,a0,6
   14b44:	01a50513          	addi	a0,a0,26
   14b48:	0007d703          	lhu	a4,0(a5)
   14b4c:	00278793          	addi	a5,a5,2
   14b50:	02071a63          	bnez	a4,14b84 <emovo.isra.6+0x90>
   14b54:	fea79ae3          	bne	a5,a0,14b48 <emovo.isra.6+0x54>
   14b58:	01258713          	addi	a4,a1,18
   14b5c:	00058793          	mv	a5,a1
   14b60:	00278793          	addi	a5,a5,2
   14b64:	fe079f23          	sh	zero,-2(a5)
   14b68:	fef71ce3          	bne	a4,a5,14b60 <emovo.isra.6+0x6c>
   14b6c:	0125d783          	lhu	a5,18(a1)
   14b70:	00008737          	lui	a4,0x8
   14b74:	fff70713          	addi	a4,a4,-1 # 7fff <register_fini-0x80b1>
   14b78:	00e7e7b3          	or	a5,a5,a4
   14b7c:	00f59923          	sh	a5,18(a1)
   14b80:	00008067          	ret
   14b84:	01058713          	addi	a4,a1,16
   14b88:	00058793          	mv	a5,a1
   14b8c:	00278793          	addi	a5,a5,2
   14b90:	fe079f23          	sh	zero,-2(a5)
   14b94:	fef71ce3          	bne	a4,a5,14b8c <emovo.isra.6+0x98>
   14b98:	7fffc7b7          	lui	a5,0x7fffc
   14b9c:	00f5a823          	sw	a5,16(a1)
   14ba0:	00008067          	ret

0000000000014ba4 <emul>:
   14ba4:	f4010113          	addi	sp,sp,-192
   14ba8:	09513423          	sd	s5,136(sp)
   14bac:	01255a83          	lhu	s5,18(a0)
   14bb0:	000087b7          	lui	a5,0x8
   14bb4:	fff78793          	addi	a5,a5,-1 # 7fff <register_fini-0x80b1>
   14bb8:	0a813823          	sd	s0,176(sp)
   14bbc:	0a913423          	sd	s1,168(sp)
   14bc0:	0b213023          	sd	s2,160(sp)
   14bc4:	09313c23          	sd	s3,152(sp)
   14bc8:	09613023          	sd	s6,128(sp)
   14bcc:	0a113c23          	sd	ra,184(sp)
   14bd0:	09413823          	sd	s4,144(sp)
   14bd4:	07713c23          	sd	s7,120(sp)
   14bd8:	07813823          	sd	s8,112(sp)
   14bdc:	07913423          	sd	s9,104(sp)
   14be0:	0157fb33          	and	s6,a5,s5
   14be4:	00050493          	mv	s1,a0
   14be8:	00058913          	mv	s2,a1
   14bec:	00060413          	mv	s0,a2
   14bf0:	00068993          	mv	s3,a3
   14bf4:	0afb1863          	bne	s6,a5,14ca4 <emul+0x100>
   14bf8:	b7cff0ef          	jal	ra,13f74 <eisnan.part.0>
   14bfc:	20051c63          	bnez	a0,14e14 <emul+0x270>
   14c00:	01295a03          	lhu	s4,18(s2)
   14c04:	014b77b3          	and	a5,s6,s4
   14c08:	23679463          	bne	a5,s6,14e30 <emul+0x28c>
   14c0c:	00090513          	mv	a0,s2
   14c10:	b64ff0ef          	jal	ra,13f74 <eisnan.part.0>
   14c14:	0a051463          	bnez	a0,14cbc <emul+0x118>
   14c18:	00048513          	mv	a0,s1
   14c1c:	e10ff0ef          	jal	ra,1422c <eisinf.part.1>
   14c20:	20051e63          	bnez	a0,14e3c <emul+0x298>
   14c24:	000087b7          	lui	a5,0x8
   14c28:	fff78793          	addi	a5,a5,-1 # 7fff <register_fini-0x80b1>
   14c2c:	0147fa33          	and	s4,a5,s4
   14c30:	030a1a13          	slli	s4,s4,0x30
   14c34:	030a5a13          	srli	s4,s4,0x30
   14c38:	2cfa1663          	bne	s4,a5,14f04 <emul+0x360>
   14c3c:	00090513          	mv	a0,s2
   14c40:	decff0ef          	jal	ra,1422c <eisinf.part.1>
   14c44:	32051263          	bnez	a0,14f68 <emul+0x3c4>
   14c48:	0124d783          	lhu	a5,18(s1)
   14c4c:	00fa77b3          	and	a5,s4,a5
   14c50:	21478463          	beq	a5,s4,14e58 <emul+0x2b4>
   14c54:	00048513          	mv	a0,s1
   14c58:	00010593          	mv	a1,sp
   14c5c:	bc8ff0ef          	jal	ra,14024 <emovi>
   14c60:	00090513          	mv	a0,s2
   14c64:	02010593          	addi	a1,sp,32
   14c68:	bbcff0ef          	jal	ra,14024 <emovi>
   14c6c:	00215483          	lhu	s1,2(sp)
   14c70:	02215903          	lhu	s2,34(sp)
   14c74:	08049a63          	bnez	s1,14d08 <emul+0x164>
   14c78:	00410793          	addi	a5,sp,4
   14c7c:	01810693          	addi	a3,sp,24
   14c80:	2cd78063          	beq	a5,a3,14f40 <emul+0x39c>
   14c84:	00278793          	addi	a5,a5,2
   14c88:	ffe7d703          	lhu	a4,-2(a5)
   14c8c:	fe070ae3          	beqz	a4,14c80 <emul+0xdc>
   14c90:	00010513          	mv	a0,sp
   14c94:	f60ff0ef          	jal	ra,143f4 <enormlz>
   14c98:	40a004b3          	neg	s1,a0
   14c9c:	02215703          	lhu	a4,34(sp)
   14ca0:	06c0006f          	j	14d0c <emul+0x168>
   14ca4:	0125da03          	lhu	s4,18(a1)
   14ca8:	0147f733          	and	a4,a5,s4
   14cac:	faf714e3          	bne	a4,a5,14c54 <emul+0xb0>
   14cb0:	00058513          	mv	a0,a1
   14cb4:	ac0ff0ef          	jal	ra,13f74 <eisnan.part.0>
   14cb8:	f60506e3          	beqz	a0,14c24 <emul+0x80>
   14cbc:	01490713          	addi	a4,s2,20
   14cc0:	00290913          	addi	s2,s2,2
   14cc4:	ffe95783          	lhu	a5,-2(s2)
   14cc8:	00240413          	addi	s0,s0,2
   14ccc:	fef41f23          	sh	a5,-2(s0)
   14cd0:	fee918e3          	bne	s2,a4,14cc0 <emul+0x11c>
   14cd4:	0b813083          	ld	ra,184(sp)
   14cd8:	0b013403          	ld	s0,176(sp)
   14cdc:	0a813483          	ld	s1,168(sp)
   14ce0:	0a013903          	ld	s2,160(sp)
   14ce4:	09813983          	ld	s3,152(sp)
   14ce8:	09013a03          	ld	s4,144(sp)
   14cec:	08813a83          	ld	s5,136(sp)
   14cf0:	08013b03          	ld	s6,128(sp)
   14cf4:	07813b83          	ld	s7,120(sp)
   14cf8:	07013c03          	ld	s8,112(sp)
   14cfc:	06813c83          	ld	s9,104(sp)
   14d00:	0c010113          	addi	sp,sp,192
   14d04:	00008067          	ret
   14d08:	00090713          	mv	a4,s2
   14d0c:	00090b13          	mv	s6,s2
   14d10:	02410793          	addi	a5,sp,36
   14d14:	03810693          	addi	a3,sp,56
   14d18:	02071263          	bnez	a4,14d3c <emul+0x198>
   14d1c:	22f68c63          	beq	a3,a5,14f54 <emul+0x3b0>
   14d20:	00278793          	addi	a5,a5,2
   14d24:	ffe7d703          	lhu	a4,-2(a5)
   14d28:	fe070ae3          	beqz	a4,14d1c <emul+0x178>
   14d2c:	02010513          	addi	a0,sp,32
   14d30:	ec4ff0ef          	jal	ra,143f4 <enormlz>
   14d34:	02215703          	lhu	a4,34(sp)
   14d38:	40a90b33          	sub	s6,s2,a0
   14d3c:	02015783          	lhu	a5,32(sp)
   14d40:	03898a93          	addi	s5,s3,56
   14d44:	02e99b23          	sh	a4,54(s3)
   14d48:	02f99a23          	sh	a5,52(s3)
   14d4c:	04e98713          	addi	a4,s3,78
   14d50:	000a8793          	mv	a5,s5
   14d54:	00079023          	sh	zero,0(a5)
   14d58:	00278793          	addi	a5,a5,2
   14d5c:	fef71ce3          	bne	a4,a5,14d54 <emul+0x1b0>
   14d60:	04c98b93          	addi	s7,s3,76
   14d64:	00000a13          	li	s4,0
   14d68:	01810913          	addi	s2,sp,24
   14d6c:	00410c93          	addi	s9,sp,4
   14d70:	04210c13          	addi	s8,sp,66
   14d74:	00095503          	lhu	a0,0(s2)
   14d78:	ffe90913          	addi	s2,s2,-2
   14d7c:	14051263          	bnez	a0,14ec0 <emul+0x31c>
   14d80:	04c9d703          	lhu	a4,76(s3)
   14d84:	000b8793          	mv	a5,s7
   14d88:	00ea6a33          	or	s4,s4,a4
   14d8c:	ffe78793          	addi	a5,a5,-2
   14d90:	0007d703          	lhu	a4,0(a5)
   14d94:	00e79123          	sh	a4,2(a5)
   14d98:	ff579ae3          	bne	a5,s5,14d8c <emul+0x1e8>
   14d9c:	02099c23          	sh	zero,56(s3)
   14da0:	fd991ae3          	bne	s2,s9,14d74 <emul+0x1d0>
   14da4:	03498713          	addi	a4,s3,52
   14da8:	02010793          	addi	a5,sp,32
   14dac:	03a10693          	addi	a3,sp,58
   14db0:	00075603          	lhu	a2,0(a4)
   14db4:	00278793          	addi	a5,a5,2
   14db8:	00270713          	addi	a4,a4,2
   14dbc:	fec79f23          	sh	a2,-2(a5)
   14dc0:	fef698e3          	bne	a3,a5,14db0 <emul+0x20c>
   14dc4:	ffffc6b7          	lui	a3,0xffffc
   14dc8:	016484b3          	add	s1,s1,s6
   14dcc:	00268693          	addi	a3,a3,2 # ffffffffffffc002 <__BSS_END__+0xfffffffffffd8dfa>
   14dd0:	000a0593          	mv	a1,s4
   14dd4:	02010513          	addi	a0,sp,32
   14dd8:	00098793          	mv	a5,s3
   14ddc:	04000713          	li	a4,64
   14de0:	00d486b3          	add	a3,s1,a3
   14de4:	00000613          	li	a2,0
   14de8:	f90ff0ef          	jal	ra,14578 <emdnorm>
   14dec:	02015703          	lhu	a4,32(sp)
   14df0:	00015783          	lhu	a5,0(sp)
   14df4:	00040593          	mv	a1,s0
   14df8:	02010513          	addi	a0,sp,32
   14dfc:	40e787b3          	sub	a5,a5,a4
   14e00:	00f037b3          	snez	a5,a5
   14e04:	40f007bb          	negw	a5,a5
   14e08:	02f11023          	sh	a5,32(sp)
   14e0c:	ce9ff0ef          	jal	ra,14af4 <emovo.isra.6>
   14e10:	ec5ff06f          	j	14cd4 <emul+0x130>
   14e14:	01448713          	addi	a4,s1,20
   14e18:	00248493          	addi	s1,s1,2
   14e1c:	ffe4d783          	lhu	a5,-2(s1)
   14e20:	00240413          	addi	s0,s0,2
   14e24:	fef41f23          	sh	a5,-2(s0)
   14e28:	fee498e3          	bne	s1,a4,14e18 <emul+0x274>
   14e2c:	ea9ff06f          	j	14cd4 <emul+0x130>
   14e30:	00048513          	mv	a0,s1
   14e34:	bf8ff0ef          	jal	ra,1422c <eisinf.part.1>
   14e38:	0c050863          	beqz	a0,14f08 <emul+0x364>
   14e3c:	0000c597          	auipc	a1,0xc
   14e40:	60458593          	addi	a1,a1,1540 # 21440 <ezero>
   14e44:	00090513          	mv	a0,s2
   14e48:	ac8ff0ef          	jal	ra,14110 <ecmp>
   14e4c:	14050063          	beqz	a0,14f8c <emul+0x3e8>
   14e50:	01295a03          	lhu	s4,18(s2)
   14e54:	dd1ff06f          	j	14c24 <emul+0x80>
   14e58:	00048513          	mv	a0,s1
   14e5c:	bd0ff0ef          	jal	ra,1422c <eisinf.part.1>
   14e60:	00051863          	bnez	a0,14e70 <emul+0x2cc>
   14e64:	00090513          	mv	a0,s2
   14e68:	bc4ff0ef          	jal	ra,1422c <eisinf.part.1>
   14e6c:	de0504e3          	beqz	a0,14c54 <emul+0xb0>
   14e70:	00048513          	mv	a0,s1
   14e74:	970ff0ef          	jal	ra,13fe4 <eisneg>
   14e78:	00050493          	mv	s1,a0
   14e7c:	00090513          	mv	a0,s2
   14e80:	964ff0ef          	jal	ra,13fe4 <eisneg>
   14e84:	40a48533          	sub	a0,s1,a0
   14e88:	00a03533          	snez	a0,a0
   14e8c:	00f51513          	slli	a0,a0,0xf
   14e90:	00a41923          	sh	a0,18(s0)
   14e94:	01240713          	addi	a4,s0,18
   14e98:	00040793          	mv	a5,s0
   14e9c:	00278793          	addi	a5,a5,2
   14ea0:	fe079f23          	sh	zero,-2(a5)
   14ea4:	fee79ce3          	bne	a5,a4,14e9c <emul+0x2f8>
   14ea8:	01245783          	lhu	a5,18(s0)
   14eac:	00008737          	lui	a4,0x8
   14eb0:	fff70713          	addi	a4,a4,-1 # 7fff <register_fini-0x80b1>
   14eb4:	00e7e7b3          	or	a5,a5,a4
   14eb8:	00f41923          	sh	a5,18(s0)
   14ebc:	e19ff06f          	j	14cd4 <emul+0x130>
   14ec0:	04010613          	addi	a2,sp,64
   14ec4:	02010593          	addi	a1,sp,32
   14ec8:	fcdfe0ef          	jal	ra,13e94 <m16m>
   14ecc:	000b8613          	mv	a2,s7
   14ed0:	00000593          	li	a1,0
   14ed4:	05810713          	addi	a4,sp,88
   14ed8:	00065503          	lhu	a0,0(a2)
   14edc:	00075783          	lhu	a5,0(a4)
   14ee0:	ffe60613          	addi	a2,a2,-2
   14ee4:	ffe70713          	addi	a4,a4,-2
   14ee8:	00a787b3          	add	a5,a5,a0
   14eec:	00b787b3          	add	a5,a5,a1
   14ef0:	00f61123          	sh	a5,2(a2)
   14ef4:	0107d793          	srli	a5,a5,0x10
   14ef8:	0017f593          	andi	a1,a5,1
   14efc:	fd871ee3          	bne	a4,s8,14ed8 <emul+0x334>
   14f00:	e81ff06f          	j	14d80 <emul+0x1dc>
   14f04:	0124da83          	lhu	s5,18(s1)
   14f08:	000087b7          	lui	a5,0x8
   14f0c:	fff78793          	addi	a5,a5,-1 # 7fff <register_fini-0x80b1>
   14f10:	0157fab3          	and	s5,a5,s5
   14f14:	030a9a93          	slli	s5,s5,0x30
   14f18:	030ada93          	srli	s5,s5,0x30
   14f1c:	d2fa9ce3          	bne	s5,a5,14c54 <emul+0xb0>
   14f20:	00048513          	mv	a0,s1
   14f24:	b08ff0ef          	jal	ra,1422c <eisinf.part.1>
   14f28:	f40514e3          	bnez	a0,14e70 <emul+0x2cc>
   14f2c:	01295783          	lhu	a5,18(s2)
   14f30:	fff7c793          	not	a5,a5
   14f34:	03179713          	slli	a4,a5,0x31
   14f38:	d0071ee3          	bnez	a4,14c54 <emul+0xb0>
   14f3c:	f29ff06f          	j	14e64 <emul+0x2c0>
   14f40:	01440793          	addi	a5,s0,20
   14f44:	00240413          	addi	s0,s0,2
   14f48:	fe041f23          	sh	zero,-2(s0)
   14f4c:	fe879ce3          	bne	a5,s0,14f44 <emul+0x3a0>
   14f50:	d85ff06f          	j	14cd4 <emul+0x130>
   14f54:	01440793          	addi	a5,s0,20
   14f58:	00240413          	addi	s0,s0,2
   14f5c:	fe041f23          	sh	zero,-2(s0)
   14f60:	fef41ce3          	bne	s0,a5,14f58 <emul+0x3b4>
   14f64:	d71ff06f          	j	14cd4 <emul+0x130>
   14f68:	0000c597          	auipc	a1,0xc
   14f6c:	4d858593          	addi	a1,a1,1240 # 21440 <ezero>
   14f70:	00048513          	mv	a0,s1
   14f74:	99cff0ef          	jal	ra,14110 <ecmp>
   14f78:	00050a63          	beqz	a0,14f8c <emul+0x3e8>
   14f7c:	0124d783          	lhu	a5,18(s1)
   14f80:	00fa77b3          	and	a5,s4,a5
   14f84:	f9478ee3          	beq	a5,s4,14f20 <emul+0x37c>
   14f88:	fa5ff06f          	j	14f2c <emul+0x388>
   14f8c:	01040713          	addi	a4,s0,16
   14f90:	00040793          	mv	a5,s0
   14f94:	00278793          	addi	a5,a5,2
   14f98:	fe079f23          	sh	zero,-2(a5)
   14f9c:	fee79ce3          	bne	a5,a4,14f94 <emul+0x3f0>
   14fa0:	7fffc7b7          	lui	a5,0x7fffc
   14fa4:	00f42823          	sw	a5,16(s0)
   14fa8:	d2dff06f          	j	14cd4 <emul+0x130>

0000000000014fac <ediv>:
   14fac:	01255783          	lhu	a5,18(a0)
   14fb0:	f2010113          	addi	sp,sp,-224
   14fb4:	0c813823          	sd	s0,208(sp)
   14fb8:	fff7c793          	not	a5,a5
   14fbc:	0c913423          	sd	s1,200(sp)
   14fc0:	0d213023          	sd	s2,192(sp)
   14fc4:	09813823          	sd	s8,144(sp)
   14fc8:	0c113c23          	sd	ra,216(sp)
   14fcc:	0b313c23          	sd	s3,184(sp)
   14fd0:	0b413823          	sd	s4,176(sp)
   14fd4:	0b513423          	sd	s5,168(sp)
   14fd8:	0b613023          	sd	s6,160(sp)
   14fdc:	09713c23          	sd	s7,152(sp)
   14fe0:	09913423          	sd	s9,136(sp)
   14fe4:	09a13023          	sd	s10,128(sp)
   14fe8:	07b13c23          	sd	s11,120(sp)
   14fec:	03179713          	slli	a4,a5,0x31
   14ff0:	00050493          	mv	s1,a0
   14ff4:	00058913          	mv	s2,a1
   14ff8:	00060413          	mv	s0,a2
   14ffc:	00068c13          	mv	s8,a3
   15000:	00071663          	bnez	a4,1500c <ediv+0x60>
   15004:	f71fe0ef          	jal	ra,13f74 <eisnan.part.0>
   15008:	38051463          	bnez	a0,15390 <ediv+0x3e4>
   1500c:	01295783          	lhu	a5,18(s2)
   15010:	fff7c793          	not	a5,a5
   15014:	03179713          	slli	a4,a5,0x31
   15018:	08070e63          	beqz	a4,150b4 <ediv+0x108>
   1501c:	0000c597          	auipc	a1,0xc
   15020:	42458593          	addi	a1,a1,1060 # 21440 <ezero>
   15024:	00048513          	mv	a0,s1
   15028:	8e8ff0ef          	jal	ra,14110 <ecmp>
   1502c:	10050463          	beqz	a0,15134 <ediv+0x188>
   15030:	0124d983          	lhu	s3,18(s1)
   15034:	01295703          	lhu	a4,18(s2)
   15038:	000087b7          	lui	a5,0x8
   1503c:	fff78793          	addi	a5,a5,-1 # 7fff <register_fini-0x80b1>
   15040:	0137f9b3          	and	s3,a5,s3
   15044:	00e7fa33          	and	s4,a5,a4
   15048:	08f99a63          	bne	s3,a5,150dc <ediv+0x130>
   1504c:	00048513          	mv	a0,s1
   15050:	9dcff0ef          	jal	ra,1422c <eisinf.part.1>
   15054:	10050a63          	beqz	a0,15168 <ediv+0x1bc>
   15058:	013a1863          	bne	s4,s3,15068 <ediv+0xbc>
   1505c:	00090513          	mv	a0,s2
   15060:	9ccff0ef          	jal	ra,1422c <eisinf.part.1>
   15064:	0e051263          	bnez	a0,15148 <ediv+0x19c>
   15068:	01440793          	addi	a5,s0,20
   1506c:	00240413          	addi	s0,s0,2
   15070:	fe041f23          	sh	zero,-2(s0)
   15074:	fef41ce3          	bne	s0,a5,1506c <ediv+0xc0>
   15078:	0d813083          	ld	ra,216(sp)
   1507c:	0d013403          	ld	s0,208(sp)
   15080:	0c813483          	ld	s1,200(sp)
   15084:	0c013903          	ld	s2,192(sp)
   15088:	0b813983          	ld	s3,184(sp)
   1508c:	0b013a03          	ld	s4,176(sp)
   15090:	0a813a83          	ld	s5,168(sp)
   15094:	0a013b03          	ld	s6,160(sp)
   15098:	09813b83          	ld	s7,152(sp)
   1509c:	09013c03          	ld	s8,144(sp)
   150a0:	08813c83          	ld	s9,136(sp)
   150a4:	08013d03          	ld	s10,128(sp)
   150a8:	07813d83          	ld	s11,120(sp)
   150ac:	0e010113          	addi	sp,sp,224
   150b0:	00008067          	ret
   150b4:	00090513          	mv	a0,s2
   150b8:	ebdfe0ef          	jal	ra,13f74 <eisnan.part.0>
   150bc:	f60500e3          	beqz	a0,1501c <ediv+0x70>
   150c0:	01490713          	addi	a4,s2,20
   150c4:	00290913          	addi	s2,s2,2
   150c8:	ffe95783          	lhu	a5,-2(s2)
   150cc:	00240413          	addi	s0,s0,2
   150d0:	fef41f23          	sh	a5,-2(s0)
   150d4:	fee918e3          	bne	s2,a4,150c4 <ediv+0x118>
   150d8:	fa1ff06f          	j	15078 <ediv+0xcc>
   150dc:	08fa0863          	beq	s4,a5,1516c <ediv+0x1c0>
   150e0:	01010593          	addi	a1,sp,16
   150e4:	00048513          	mv	a0,s1
   150e8:	f3dfe0ef          	jal	ra,14024 <emovi>
   150ec:	00090513          	mv	a0,s2
   150f0:	03010593          	addi	a1,sp,48
   150f4:	f31fe0ef          	jal	ra,14024 <emovi>
   150f8:	03215c83          	lhu	s9,50(sp)
   150fc:	01215903          	lhu	s2,18(sp)
   15100:	0c0c9463          	bnez	s9,151c8 <ediv+0x21c>
   15104:	03410793          	addi	a5,sp,52
   15108:	04810493          	addi	s1,sp,72
   1510c:	34f48a63          	beq	s1,a5,15460 <ediv+0x4b4>
   15110:	00278793          	addi	a5,a5,2
   15114:	ffe7d703          	lhu	a4,-2(a5)
   15118:	fe070ae3          	beqz	a4,1510c <ediv+0x160>
   1511c:	03010513          	addi	a0,sp,48
   15120:	ad4ff0ef          	jal	ra,143f4 <enormlz>
   15124:	40a007b3          	neg	a5,a0
   15128:	00f13423          	sd	a5,8(sp)
   1512c:	01215603          	lhu	a2,18(sp)
   15130:	0a00006f          	j	151d0 <ediv+0x224>
   15134:	0000c597          	auipc	a1,0xc
   15138:	30c58593          	addi	a1,a1,780 # 21440 <ezero>
   1513c:	00090513          	mv	a0,s2
   15140:	fd1fe0ef          	jal	ra,14110 <ecmp>
   15144:	ee0516e3          	bnez	a0,15030 <ediv+0x84>
   15148:	01040713          	addi	a4,s0,16
   1514c:	00040793          	mv	a5,s0
   15150:	00278793          	addi	a5,a5,2
   15154:	fe079f23          	sh	zero,-2(a5)
   15158:	fee79ce3          	bne	a5,a4,15150 <ediv+0x1a4>
   1515c:	7fffc7b7          	lui	a5,0x7fffc
   15160:	00f42823          	sw	a5,16(s0)
   15164:	f15ff06f          	j	15078 <ediv+0xcc>
   15168:	f73a1ce3          	bne	s4,s3,150e0 <ediv+0x134>
   1516c:	00090513          	mv	a0,s2
   15170:	8bcff0ef          	jal	ra,1422c <eisinf.part.1>
   15174:	f60506e3          	beqz	a0,150e0 <ediv+0x134>
   15178:	00048513          	mv	a0,s1
   1517c:	e69fe0ef          	jal	ra,13fe4 <eisneg>
   15180:	00050493          	mv	s1,a0
   15184:	00090513          	mv	a0,s2
   15188:	e5dfe0ef          	jal	ra,13fe4 <eisneg>
   1518c:	40a48533          	sub	a0,s1,a0
   15190:	00a03533          	snez	a0,a0
   15194:	00f51513          	slli	a0,a0,0xf
   15198:	00a41923          	sh	a0,18(s0)
   1519c:	01240713          	addi	a4,s0,18
   151a0:	00040793          	mv	a5,s0
   151a4:	00278793          	addi	a5,a5,2 # 7fffc002 <__BSS_END__+0x7ffd8dfa>
   151a8:	fe079f23          	sh	zero,-2(a5)
   151ac:	fee79ce3          	bne	a5,a4,151a4 <ediv+0x1f8>
   151b0:	01245783          	lhu	a5,18(s0)
   151b4:	00008737          	lui	a4,0x8
   151b8:	fff70713          	addi	a4,a4,-1 # 7fff <register_fini-0x80b1>
   151bc:	00e7e7b3          	or	a5,a5,a4
   151c0:	00f41923          	sh	a5,18(s0)
   151c4:	eb5ff06f          	j	15078 <ediv+0xcc>
   151c8:	01913423          	sd	s9,8(sp)
   151cc:	00090613          	mv	a2,s2
   151d0:	01213023          	sd	s2,0(sp)
   151d4:	01410793          	addi	a5,sp,20
   151d8:	02810693          	addi	a3,sp,40
   151dc:	02061263          	bnez	a2,15200 <ediv+0x254>
   151e0:	28f68a63          	beq	a3,a5,15474 <ediv+0x4c8>
   151e4:	00278793          	addi	a5,a5,2
   151e8:	ffe7d703          	lhu	a4,-2(a5)
   151ec:	fe070ae3          	beqz	a4,151e0 <ediv+0x234>
   151f0:	01010513          	addi	a0,sp,16
   151f4:	a00ff0ef          	jal	ra,143f4 <enormlz>
   151f8:	40a907b3          	sub	a5,s2,a0
   151fc:	00f13023          	sd	a5,0(sp)
   15200:	03012703          	lw	a4,48(sp)
   15204:	038c0d93          	addi	s11,s8,56
   15208:	000d8793          	mv	a5,s11
   1520c:	02ec2a23          	sw	a4,52(s8)
   15210:	04ec0993          	addi	s3,s8,78
   15214:	00278793          	addi	a5,a5,2
   15218:	fe079f23          	sh	zero,-2(a5)
   1521c:	fef99ce3          	bne	s3,a5,15214 <ediv+0x268>
   15220:	03010513          	addi	a0,sp,48
   15224:	b95fe0ef          	jal	ra,13db8 <eshdn1>
   15228:	01615d03          	lhu	s10,22(sp)
   1522c:	00010ab7          	lui	s5,0x10
   15230:	04810493          	addi	s1,sp,72
   15234:	010d1b13          	slli	s6,s10,0x10
   15238:	41ab0b33          	sub	s6,s6,s10
   1523c:	03210b93          	addi	s7,sp,50
   15240:	fffa8a93          	addi	s5,s5,-1 # ffff <register_fini-0xb1>
   15244:	06a10913          	addi	s2,sp,106
   15248:	05210a13          	addi	s4,sp,82
   1524c:	03415503          	lhu	a0,52(sp)
   15250:	03615783          	lhu	a5,54(sp)
   15254:	000a8c93          	mv	s9,s5
   15258:	01051513          	slli	a0,a0,0x10
   1525c:	00f50533          	add	a0,a0,a5
   15260:	00ab6a63          	bltu	s6,a0,15274 <ediv+0x2c8>
   15264:	000d0593          	mv	a1,s10
   15268:	ffdfa0ef          	jal	ra,10264 <__udivdi3>
   1526c:	03051c93          	slli	s9,a0,0x30
   15270:	030cdc93          	srli	s9,s9,0x30
   15274:	05010613          	addi	a2,sp,80
   15278:	01010593          	addi	a1,sp,16
   1527c:	000c8513          	mv	a0,s9
   15280:	c15fe0ef          	jal	ra,13e94 <m16m>
   15284:	03410613          	addi	a2,sp,52
   15288:	05410793          	addi	a5,sp,84
   1528c:	00278793          	addi	a5,a5,2
   15290:	00260613          	addi	a2,a2,2
   15294:	ffe7d503          	lhu	a0,-2(a5)
   15298:	ffe65583          	lhu	a1,-2(a2)
   1529c:	10b51863          	bne	a0,a1,153ac <ediv+0x400>
   152a0:	ff2796e3          	bne	a5,s2,1528c <ediv+0x2e0>
   152a4:	00000513          	li	a0,0
   152a8:	06810593          	addi	a1,sp,104
   152ac:	00048613          	mv	a2,s1
   152b0:	00065783          	lhu	a5,0(a2)
   152b4:	0005d803          	lhu	a6,0(a1)
   152b8:	ffe60613          	addi	a2,a2,-2
   152bc:	40a787b3          	sub	a5,a5,a0
   152c0:	410787b3          	sub	a5,a5,a6
   152c4:	00f61123          	sh	a5,2(a2)
   152c8:	0107d793          	srli	a5,a5,0x10
   152cc:	ffe58593          	addi	a1,a1,-2
   152d0:	0017f513          	andi	a0,a5,1
   152d4:	fd761ee3          	bne	a2,s7,152b0 <ediv+0x304>
   152d8:	019d9023          	sh	s9,0(s11)
   152dc:	03410793          	addi	a5,sp,52
   152e0:	00278793          	addi	a5,a5,2
   152e4:	0007d683          	lhu	a3,0(a5)
   152e8:	fed79f23          	sh	a3,-2(a5)
   152ec:	fe979ae3          	bne	a5,s1,152e0 <ediv+0x334>
   152f0:	04011423          	sh	zero,72(sp)
   152f4:	002d8d93          	addi	s11,s11,2
   152f8:	f5b99ae3          	bne	s3,s11,1524c <ediv+0x2a0>
   152fc:	00000593          	li	a1,0
   15300:	03410793          	addi	a5,sp,52
   15304:	04a10693          	addi	a3,sp,74
   15308:	00278793          	addi	a5,a5,2
   1530c:	ffe7d703          	lhu	a4,-2(a5)
   15310:	00e5e5b3          	or	a1,a1,a4
   15314:	fed79ae3          	bne	a5,a3,15308 <ediv+0x35c>
   15318:	0005859b          	sext.w	a1,a1
   1531c:	00b035b3          	snez	a1,a1
   15320:	034c0713          	addi	a4,s8,52
   15324:	03010793          	addi	a5,sp,48
   15328:	00075603          	lhu	a2,0(a4)
   1532c:	00278793          	addi	a5,a5,2
   15330:	00270713          	addi	a4,a4,2
   15334:	fec79f23          	sh	a2,-2(a5)
   15338:	fef698e3          	bne	a3,a5,15328 <ediv+0x37c>
   1533c:	00813783          	ld	a5,8(sp)
   15340:	00013703          	ld	a4,0(sp)
   15344:	000046b7          	lui	a3,0x4
   15348:	fff68693          	addi	a3,a3,-1 # 3fff <register_fini-0xc0b1>
   1534c:	40e78cb3          	sub	s9,a5,a4
   15350:	03010513          	addi	a0,sp,48
   15354:	000c0793          	mv	a5,s8
   15358:	04000713          	li	a4,64
   1535c:	00dc86b3          	add	a3,s9,a3
   15360:	00000613          	li	a2,0
   15364:	a14ff0ef          	jal	ra,14578 <emdnorm>
   15368:	03015703          	lhu	a4,48(sp)
   1536c:	01015783          	lhu	a5,16(sp)
   15370:	00040593          	mv	a1,s0
   15374:	03010513          	addi	a0,sp,48
   15378:	40e787b3          	sub	a5,a5,a4
   1537c:	00f037b3          	snez	a5,a5
   15380:	40f007bb          	negw	a5,a5
   15384:	02f11823          	sh	a5,48(sp)
   15388:	f6cff0ef          	jal	ra,14af4 <emovo.isra.6>
   1538c:	cedff06f          	j	15078 <ediv+0xcc>
   15390:	01448713          	addi	a4,s1,20
   15394:	00248493          	addi	s1,s1,2
   15398:	ffe4d783          	lhu	a5,-2(s1)
   1539c:	00240413          	addi	s0,s0,2
   153a0:	fef41f23          	sh	a5,-2(s0)
   153a4:	fee498e3          	bne	s1,a4,15394 <ediv+0x3e8>
   153a8:	cd1ff06f          	j	15078 <ediv+0xcc>
   153ac:	eea5fce3          	bgeu	a1,a0,152a4 <ediv+0x2f8>
   153b0:	fffc879b          	addiw	a5,s9,-1
   153b4:	03079893          	slli	a7,a5,0x30
   153b8:	0308d893          	srli	a7,a7,0x30
   153bc:	00000513          	li	a0,0
   153c0:	02810593          	addi	a1,sp,40
   153c4:	06810613          	addi	a2,sp,104
   153c8:	00065783          	lhu	a5,0(a2)
   153cc:	0005d803          	lhu	a6,0(a1)
   153d0:	ffe60613          	addi	a2,a2,-2
   153d4:	40a787b3          	sub	a5,a5,a0
   153d8:	410787b3          	sub	a5,a5,a6
   153dc:	00f61123          	sh	a5,2(a2)
   153e0:	0107d793          	srli	a5,a5,0x10
   153e4:	ffe58593          	addi	a1,a1,-2
   153e8:	0017f513          	andi	a0,a5,1
   153ec:	fd461ee3          	bne	a2,s4,153c8 <ediv+0x41c>
   153f0:	03410613          	addi	a2,sp,52
   153f4:	05410793          	addi	a5,sp,84
   153f8:	00278793          	addi	a5,a5,2
   153fc:	00260613          	addi	a2,a2,2
   15400:	ffe7d503          	lhu	a0,-2(a5)
   15404:	ffe65583          	lhu	a1,-2(a2)
   15408:	00b51863          	bne	a0,a1,15418 <ediv+0x46c>
   1540c:	ff2796e3          	bne	a5,s2,153f8 <ediv+0x44c>
   15410:	00088c93          	mv	s9,a7
   15414:	e91ff06f          	j	152a4 <ediv+0x2f8>
   15418:	fea5fce3          	bgeu	a1,a0,15410 <ediv+0x464>
   1541c:	ffec869b          	addiw	a3,s9,-2
   15420:	03069c93          	slli	s9,a3,0x30
   15424:	030cdc93          	srli	s9,s9,0x30
   15428:	00000513          	li	a0,0
   1542c:	02810593          	addi	a1,sp,40
   15430:	06810613          	addi	a2,sp,104
   15434:	00065783          	lhu	a5,0(a2)
   15438:	0005d803          	lhu	a6,0(a1)
   1543c:	ffe60613          	addi	a2,a2,-2
   15440:	40a787b3          	sub	a5,a5,a0
   15444:	410787b3          	sub	a5,a5,a6
   15448:	00f61123          	sh	a5,2(a2)
   1544c:	0107d793          	srli	a5,a5,0x10
   15450:	ffe58593          	addi	a1,a1,-2
   15454:	0017f513          	andi	a0,a5,1
   15458:	fd461ee3          	bne	a2,s4,15434 <ediv+0x488>
   1545c:	e49ff06f          	j	152a4 <ediv+0x2f8>
   15460:	01440793          	addi	a5,s0,20
   15464:	00240413          	addi	s0,s0,2
   15468:	fe041f23          	sh	zero,-2(s0)
   1546c:	fe879ce3          	bne	a5,s0,15464 <ediv+0x4b8>
   15470:	c09ff06f          	j	15078 <ediv+0xcc>
   15474:	01015703          	lhu	a4,16(sp)
   15478:	03015783          	lhu	a5,48(sp)
   1547c:	00f70463          	beq	a4,a5,15484 <ediv+0x4d8>
   15480:	00008637          	lui	a2,0x8
   15484:	00c41923          	sh	a2,18(s0)
   15488:	01240713          	addi	a4,s0,18
   1548c:	00040793          	mv	a5,s0
   15490:	00278793          	addi	a5,a5,2
   15494:	fe079f23          	sh	zero,-2(a5)
   15498:	fef71ce3          	bne	a4,a5,15490 <ediv+0x4e4>
   1549c:	01245783          	lhu	a5,18(s0)
   154a0:	00008737          	lui	a4,0x8
   154a4:	fff70713          	addi	a4,a4,-1 # 7fff <register_fini-0x80b1>
   154a8:	00e7e7b3          	or	a5,a5,a4
   154ac:	00f41923          	sh	a5,18(s0)
   154b0:	bc9ff06f          	j	15078 <ediv+0xcc>

00000000000154b4 <e113toe.isra.8>:
   154b4:	fd010113          	addi	sp,sp,-48
   154b8:	02813023          	sd	s0,32(sp)
   154bc:	02113423          	sd	ra,40(sp)
   154c0:	00058413          	mv	s0,a1
   154c4:	00010793          	mv	a5,sp
   154c8:	01a10713          	addi	a4,sp,26
   154cc:	00278793          	addi	a5,a5,2
   154d0:	fe079f23          	sh	zero,-2(a5)
   154d4:	fee79ce3          	bne	a5,a4,154cc <e113toe.isra.8+0x18>
   154d8:	00e55603          	lhu	a2,14(a0)
   154dc:	0106179b          	slliw	a5,a2,0x10
   154e0:	4107d79b          	sraiw	a5,a5,0x10
